(dp0
V303.00
p1
L87L
sV943.33
p2
L6740L
sV872.61
p3
L5301L
sV696.1
p4
L3566L
sV787.01
p5
L195L
sV790.3
p6
L2314L
sV709.9
p7
L745L
sVE008.1
p8
L3780L
sV259.3
p9
L7835L
sV792.5
p10
L4465L
sV365.63
p11
L2065L
sV715.23
p12
L7800L
sVE867
p13
L7526L
sV621.33
p14
L5478L
sV197.7
p15
L846L
sV394.9
p16
L2124L
sV654.63
p17
L3907L
sV551.3
p18
L7063L
sV696.4
p19
L7636L
sV426.12
p20
L1436L
sV209.57
p21
L8539L
sV718.70
p22
L3445L
sV333.79
p23
L4568L
sV800.26
p24
L8329L
sV346.20
p25
L1952L
sVV68.81
p26
L3052L
sV318.0
p27
L1978L
sV646.20
p28
L7047L
sVE982.9
p29
L7879L
sV719.95
p30
L2422L
sVE895
p31
L7349L
sV703.0
p32
L344L
sV735.8
p33
L4667L
sV793.99
p34
L2791L
sVV25.8
p35
L417L
sV788.41
p36
L293L
sV337.09
p37
L1634L
sV049.9
p38
L6761L
sV845.09
p39
L2137L
sV307.0
p40
L1465L
sV296.99
p41
L1973L
sV372.06
p42
L4221L
sV730.2
p43
L4676L
sV036.9
p44
L6705L
sV312.23
p45
L3819L
sV366.11
p46
L3405L
sV155.0
p47
L302L
sVE926.2
p48
L6468L
sV947.9
p49
L3017L
sV230.8
p50
L8532L
sV718.43
p51
L923L
sV286.5
p52
L5383L
sV736.72
p53
L3479L
sV680.9
p54
L1482L
sV427.42
p55
L4257L
sV535.61
p56
L1323L
sV754.51
p57
L3477L
sV728.89
p58
L2702L
sV571.8
p59
L446L
sVV10.11
p60
L1240L
sV750.26
p61
L3681L
sVE901.0
p62
L7260L
sV053.21
p63
L6735L
sV718.86
p64
L9L
sVV71.01
p65
L4194L
sVV62.89
p66
L286L
sV715.26
p67
L3652L
sV522.7
p68
L4347L
sV173.51
p69
L3524L
sV311.0
p70
L7057L
sV355.8
p71
L1388L
sV719.97
p72
L2203L
sV369.04
p73
L8569L
sVV17.0
p74
L2020L
sV997.91
p75
L973L
sVV89.02
p76
L8579L
sV374.01
p77
L5018L
sVV80.1
p78
L3259L
sVV58.44
p79
L674L
sV824.1
p80
L7487L
sVV40.39
p81
L1817L
sV780.57
p82
L440L
sV519.4
p83
L2181L
sV365.01
p84
L566L
sV648.12
p85
L7263L
sV054.40
p86
L8838L
sV475
p87
L3622L
sV330.9
p88
L6509L
sV784.40
p89
L5632L
sV569.85
p90
L5519L
sV496
p91
L172L
sV846.9
p92
L1316L
sV910.8
p93
L6364L
sV228.03
p94
L6682L
sV736.41
p95
L5715L
sV950.0
p96
L6178L
sV719.48
p97
L1639L
sV362.50
p98
L2617L
sV173.40
p99
L6757L
sV717.82
p100
L6965L
sV360.11
p101
L8346L
sVV54.21
p102
L7157L
sV863.29
p103
L7030L
sV266.2
p104
L1043L
sV275.03
p105
L3873L
sV298.9
p106
L829L
sV756.11
p107
L3790L
sV194.4
p108
L7886L
sV628.3
p109
L6855L
sV200.51
p110
L7791L
sVE950.1
p111
L8392L
sV789.62
p112
L899L
sV201.52
p113
L8429L
sV293.0
p114
L91L
sV780.56
p115
L1501L
sV295.02
p116
L6680L
sV754.70
p117
L3973L
sV714.1
p118
L6971L
sV656.31
p119
L610L
sV953.2
p120
L3111L
sV379.43
p121
L2745L
sV348.1
p122
L526L
sVV12.59
p123
L1874L
sV816.11
p124
L8575L
sV646.40
p125
L8898L
sVV66.9
p126
L4079L
sV366.46
p127
L7671L
sV324.0
p128
L2535L
sV379.22
p129
L3404L
sV356.0
p130
L2125L
sV652.13
p131
L8165L
sV189.0
p132
L2739L
sV309.3
p133
L2285L
sV785.0
p134
L104L
sV402.91
p135
L2662L
sVV15.07
p136
L796L
sV303.03
p137
L6011L
sVV58.2
p138
L6534L
sV574.81
p139
L7363L
sV945.36
p140
L8683L
sV707.00
p141
L143L
sV770.81
p142
L3879L
sV873.30
p143
L7770L
sV608.89
p144
L2910L
sV312.01
p145
L527L
sV372.01
p146
L3355L
sVV50.41
p147
L4678L
sV671.50
p148
L7778L
sV786.07
p149
L1061L
sV528.09
p150
L6285L
sV363.31
p151
L8748L
sV719.44
p152
L1054L
sVV65.42
p153
L747L
sV091.3
p154
L8352L
sV562.10
p155
L182L
sV486
p156
L53L
sV562.12
p157
L2188L
sV847.1
p158
L444L
sV579.1
p159
L7473L
sV838.05
p160
L5461L
sVE885.4
p161
L7202L
sV788.30
p162
L150L
sV530.4
p163
L5762L
sV622.10
p164
L3040L
sV568.81
p165
L2834L
sV370.33
p166
L2925L
sV321.1
p167
L8381L
sV664.21
p168
L6967L
sV799.59
p169
L535L
sV189.3
p170
L8911L
sVV25.3
p171
L8314L
sV724.2
p172
L289L
sVE858.0
p173
L1134L
sV038.43
p174
L5440L
sV372.03
p175
L4774L
sV814.04
p176
L8544L
sV959.19
p177
L102L
sV054.3
p178
L7729L
sV941.05
p179
L7619L
sVV45.83
p180
L7852L
sV364.71
p181
L6613L
sV471.8
p182
L6609L
sV724.03
p183
L1629L
sVV12.61
p184
L134L
sV933.1
p185
L2317L
sVE878.0
p186
L4358L
sV752.34
p187
L6522L
sV965.01
p188
L2897L
sV396.0
p189
L223L
sV941.10
p190
L6649L
sV761.5
p191
L4787L
sV665.83
p192
L6440L
sV366.8
p193
L1366L
sV607.83
p194
L3078L
sV719.88
p195
L2857L
sV640.90
p196
L4557L
sV7999
p197
L2563L
sV733.29
p198
L4098L
sV569.0
p199
L442L
sV655.50
p200
L7673L
sV304.60
p201
L3943L
sVV52.8
p202
L6846L
sVV42.3
p203
L6309L
sV909.5
p204
L5761L
sV381.51
p205
L8141L
sV829.1
p206
L6325L
sV995.54
p207
L5626L
sV938
p208
L2672L
sV275.09
p209
L3670L
sV225.0
p210
L2227L
sV716.80
p211
L4055L
sV296.90
p212
L351L
sV627.4
p213
L3302L
sVV42.2
p214
L2420L
sVV49.81
p215
L471L
sV971.1
p216
L5545L
sV735.2
p217
L3395L
sV923.01
p218
L5609L
sV655.40
p219
L8517L
sV706.0
p220
L7478L
sV821.39
p221
L8455L
sV783.22
p222
L2347L
sV717.42
p223
L1903L
sVV74.3
p224
L8946L
sV523.21
p225
L6217L
sV656.30
p226
L8754L
sV357.9
p227
L1415L
sV781.3
p228
L26L
sV997.00
p229
L5476L
sV789.64
p230
L3766L
sV429.5
p231
L8468L
sV775.4
p232
L6706L
sV379.93
p233
L260L
sV564.0
p234
L4969L
sV301.11
p235
L8069L
sV853.03
p236
L8153L
sV674.12
p237
L2100L
sV721.2
p238
L481L
sV719.36
p239
L5890L
sV627.0
p240
L4294L
sV249.9
p241
L6850L
sVE917.0
p242
L1507L
sV995.81
p243
L2178L
sV200.77
p244
L6197L
sV327.31
p245
L6154L
sVE813.7
p246
L4439L
sVE029.9
p247
L3655L
sV435.1
p248
L4753L
sV233.31
p249
L3041L
sV277.7
p250
L1247L
sV536.49
p251
L4884L
sV491.0
p252
L1154L
sV865.11
p253
L8602L
sV879.4
p254
L5680L
sV443.29
p255
L7176L
sV845.00
p256
L717L
sV851.41
p257
L8593L
sV914.6
p258
L2920L
sV692.75
p259
L7968L
sV658.40
p260
L8285L
sVV76.19
p261
L3076L
sVV14.3
p262
L986L
sV668.81
p263
L7862L
sV913.9
p264
L7266L
sV813.40
p265
L6806L
sV787.7
p266
L1512L
sV907.4
p267
L6048L
sV218.0
p268
L2389L
sV369.11
p269
L7117L
sVV16.2
p270
L7600L
sV840.3
p271
L4461L
sV787.0
p272
L4949L
sVE814.0
p273
L8460L
sV930.9
p274
L6417L
sVV71.9
p275
L1957L
sV232.6
p276
L4637L
sV198.2
p277
L2596L
sV378.03
p278
L7716L
sV721.91
p279
L6433L
sV739.0
p280
L5260L
sV995.1
p281
L1666L
sV909.0
p282
L998L
sV765.16
p283
L2036L
sV877.0
p284
L2498L
sV209.41
p285
L8021L
sV493.82
p286
L1504L
sV897.0
p287
L1426L
sVE878.8
p288
L876L
sV005.3
p289
L6518L
sV760.2
p290
L1602L
sVV88.12
p291
L7615L
sVV77.99
p292
L2155L
sV370.01
p293
L6407L
sV252.01
p294
L469L
sV796.77
p295
L2824L
sV315.5
p296
L3196L
sVV58.71
p297
L5454L
sV585.9
p298
L225L
sV814.11
p299
L6148L
sV805.6
p300
L1835L
sV959.01
p301
L507L
sV000.8
p302
L6964L
sVV17.89
p303
L4563L
sV173.71
p304
L7735L
sV788.7
p305
L7963L
sV290.0
p306
L1593L
sV994.9
p307
L5549L
sV173.3
p308
L5405L
sV885.0
p309
L5635L
sVV53.2
p310
L1909L
sV256.8
p311
L2007L
sV446.0
p312
L6711L
sV403.01
p313
L3828L
sV583.81
p314
L676L
sV727.05
p315
L2601L
sV366.53
p316
L1071L
sV536.9
p317
L453L
sVV13.21
p318
L1806L
sV925.2
p319
L7943L
sV666.20
p320
L3091L
sV825.30
p321
L6448L
sVV58.72
p322
L2814L
sV387.8
p323
L7207L
sV372.10
p324
L5096L
sV789.49
p325
L1567L
sVE884.6
p326
L7101L
sV674.03
p327
L7533L
sVV71.89
p328
L128L
sV707.25
p329
L1669L
sVV54.11
p330
L1777L
sV711.09
p331
L4155L
sV397.9
p332
L7496L
sV680.4
p333
L7680L
sV250.51
p334
L2555L
sV285.9
p335
L193L
sV976.0
p336
L5290L
sV374.05
p337
L2442L
sV478.8
p338
L7131L
sV521.01
p339
L4291L
sV385.89
p340
L3967L
sV377.39
p341
L5013L
sV010.90
p342
L3109L
sV337.29
p343
L4083L
sV760.8
p344
L5238L
sV353.4
p345
L1862L
sV008.69
p346
L4714L
sV282.8
p347
L6541L
sVV44.50
p348
L3151L
sV963.5
p349
L7186L
sV686.8
p350
L884L
sV050.0
p351
L5667L
sV379.01
p352
L6933L
sV194.8
p353
L4057L
sV842.02
p354
L6234L
sV173.99
p355
L7611L
sV651.33
p356
L5702L
sV251.0
p357
L3783L
sV737.12
p358
L4732L
sV054.11
p359
L5045L
sV361.89
p360
L7220L
sV651.30
p361
L8207L
sV333.6
p362
L7981L
sV975.3
p363
L5169L
sVE884.3
p364
L2494L
sV745.5
p365
L3837L
sVV43.62
p366
L6058L
sV574.71
p367
L6271L
sV364.04
p368
L4583L
sV681.01
p369
L5111L
sVV23.42
p370
L7132L
sV708.4
p371
L8221L
sV991.8
p372
L7121L
sV484.6
p373
L8203L
sV809.1
p374
L7624L
sV290.41
p375
L5718L
sV365.41
p376
L7949L
sV221.2
p377
L6533L
sV478.11
p378
L1858L
sV201.51
p379
L8428L
sV726.90
p380
L1720L
sV526.81
p381
L4784L
sV712.36
p382
L3533L
sV793.91
p383
L1169L
sV362.34
p384
L2620L
sV302.70
p385
L5008L
sV302.85
p386
L6182L
sV276.69
p387
L623L
sV902.42
p388
L8900L
sV525.20
p389
L6494L
sV008.43
p390
L1650L
sV343.80
p391
L7555L
sV832.04
p392
L8857L
sV530.87
p393
L4918L
sV369.16
p394
L5534L
sV250.50
p395
L434L
sV754.89
p396
L6787L
sVV90.10
p397
L5841L
sV902.31
p398
L7869L
sV717.40
p399
L7010L
sV955.1
p400
L6055L
sV380.31
p401
L5788L
sV753.15
p402
L5222L
sV425.1
p403
L4516L
sV622.4
p404
L6818L
sV466.0
p405
L287L
sV880.12
p406
L3695L
sV433.30
p407
L1094L
sV296.41
p408
L2312L
sV369.02
p409
L8746L
sV733.90
p410
L719L
sV371.56
p411
L1236L
sV812.09
p412
L755L
sV848.3
p413
L4296L
sV708.0
p414
L1791L
sV278.1
p415
L2878L
sV301.6
p416
L4982L
sV649.30
p417
L6834L
sV428.9
p418
L130L
sV845.11
p419
L6389L
sV723.8
p420
L2225L
sV318.20
p421
L4311L
sV577.0
p422
L696L
sV297.3
p423
L8331L
sV863.49
p424
L6470L
sVE879.2
p425
L6000L
sV444.9
p426
L1990L
sV170.9
p427
L6113L
sV292.84
p428
L1399L
sV784.59
p429
L648L
sV527.9
p430
L4336L
sVV25.13
p431
L621L
sV727.1
p432
L1104L
sV716.36
p433
L4373L
sV728.83
p434
L4809L
sVV40.31
p435
L7413L
sV385.21
p436
L4249L
sV922.4
p437
L1940L
sVE949.6
p438
L8218L
sV037
p439
L3855L
sV603.1
p440
L7160L
sV803.06
p441
L8327L
sV473.9
p442
L216L
sV716.13
p443
L7311L
sV825.31
p444
L8413L
sV309.21
p445
L6997L
sV730.95
p446
L6848L
sV718.98
p447
L6012L
sV733.49
p448
L3163L
sVV10.3
p449
L499L
sV460
p450
L1413L
sVV65.45
p451
L5484L
sV136.1
p452
L3863L
sV443.9
p453
L226L
sV564.02
p454
L6225L
sV307.4
p455
L8884L
sVV84.01
p456
L5868L
sV786.05
p457
L264L
sV823.30
p458
L5911L
sV375.22
p459
L6804L
sV511.81
p460
L4161L
sV700.38
p461
L8032L
sV732.4
p462
L4449L
sV807.2
p463
L5119L
sV266.1
p464
L4168L
sV734
p465
L2230L
sV715.17
p466
L1551L
sV204.20
p467
L7428L
sV183.2
p468
L7939L
sV373.2
p469
L2856L
sV814.07
p470
L3384L
sV200.43
p471
L6749L
sV661.11
p472
L3282L
sV758.1
p473
L8995L
sV379.51
p474
L4966L
sV249.61
p475
L5748L
sV420.91
p476
L4765L
sVE912
p477
L5655L
sV161.0
p478
L6384L
sV438.21
p479
L828L
sV824.6
p480
L6349L
sV617.1
p481
L3701L
sV523.20
p482
L6298L
sV733.40
p483
L5014L
sV741.01
p484
L7970L
sV840.0
p485
L3541L
sVV58.66
p486
L1607L
sV209.71
p487
L3738L
sV719.24
p488
L5882L
sV229.8
p489
L5395L
sV648.22
p490
L1529L
sV965.61
p491
L2997L
sV455.5
p492
L4146L
sV511.8
p493
L8924L
sV294.10
p494
L2075L
sV349.2
p495
L7484L
sVE968.5
p496
L6260L
sV274.01
p497
L259L
sVE953.8
p498
L6552L
sV652.93
p499
L7676L
sV790.9
p500
L6619L
sV521.24
p501
L5166L
sV560.9
p502
L129L
sV654.20
p503
L5303L
sV378.51
p504
L3316L
sV615.0
p505
L6371L
sV253.2
p506
L4387L
sV795.14
p507
L7810L
sVE906.0
p508
L3923L
sV716.49
p509
L2229L
sV719.27
p510
L2756L
sVV81.2
p511
L2382L
sV530.5
p512
L2827L
sV396.8
p513
L1291L
sV571.1
p514
L1842L
sV808.44
p515
L1606L
sV220
p516
L4038L
sV295.84
p517
L4644L
sV728.6
p518
L2525L
sV117.8
p519
L5129L
sV274.00
p520
L1677L
sV873.32
p521
L7033L
sV376.32
p522
L6066L
sVV52.3
p523
L4407L
sV595.0
p524
L152L
sV298.0
p525
L5114L
sV820.03
p526
L3759L
sVE853.2
p527
L3324L
sVV25.43
p528
L586L
sV309.4
p529
L2500L
sV296.54
p530
L3373L
sV202.88
p531
L7912L
sVV48.5
p532
L6345L
sV776.6
p533
L2801L
sV371.42
p534
L2428L
sV316
p535
L4196L
sV788.43
p536
L658L
sVV72.19
p537
L1700L
sV617.3
p538
L4345L
sV726.33
p539
L1060L
sV396.32
p540
L6180L
sV338.28
p541
L458L
sV698.0
p542
L4248L
sV846.0
p543
L1394L
sV543.0
p544
L8982L
sV348.31
p545
L1453L
sV580.89
p546
L5413L
sVV45.76
p547
L1239L
sV345.90
p548
L15L
sV863.21
p549
L7505L
sV363.56
p550
L8269L
sV719.16
p551
L6576L
sV296.62
p552
L2976L
sVV65.44
p553
L4766L
sV758.9
p554
L3197L
sV969.9
p555
L4867L
sV375.21
p556
L7606L
sV250.32
p557
L4122L
sV711.08
p558
L5024L
sVV18.9
p559
L6992L
sVV53.7
p560
L4371L
sV648.74
p561
L7079L
sV642.6
p562
L8605L
sVE885.9
p563
L349L
sV346.82
p564
L6098L
sV038.11
p565
L1459L
sVE958.5
p566
L7444L
sV785.3
p567
L5472L
sVV82.79
p568
L6231L
sV919.0
p569
L1564L
sV369.21
p570
L4981L
sV633.91
p571
L6672L
sV794.6
p572
L2268L
sVE858.9
p573
L5803L
sV564.1
p574
L1000L
sV793.81
p575
L2534L
sVV54.82
p576
L1717L
sV800.01
p577
L8799L
sV366.14
p578
L966L
sV474.9
p579
L5651L
sV444.1
p580
L5089L
sV739.4
p581
L1119L
sVE922.0
p582
L6244L
sV339.83
p583
L6344L
sV751.2
p584
L1654L
sV813.91
p585
L6056L
sV789.69
p586
L785L
sV676.64
p587
L3559L
sV905.3
p588
L1912L
sV227.5
p589
L7042L
sV831.09
p590
L7832L
sV337.21
p591
L4716L
sV305.81
p592
L7650L
sV651.90
p593
L7134L
sV962.0
p594
L6171L
sV702.11
p595
L1767L
sV731.8
p596
L1377L
sV977.1
p597
L7583L
sV008.5
p598
L2735L
sV242.91
p599
L4599L
sV923.02
p600
L7930L
sV367.9
p601
L678L
sV634.80
p602
L3307L
sVV10.41
p603
L2380L
sVV65.0
p604
L7938L
sV360.89
p605
L5560L
sVV56.2
p606
L6238L
sV437.5
p607
L8244L
sV210.8
p608
L8665L
sV577.1
p609
L701L
sV656.23
p610
L4819L
sV916.7
p611
L8679L
sVE007.0
p612
L1506L
sV943.02
p613
L6019L
sVV45.85
p614
L2447L
sV438.9
p615
L1485L
sV288.3
p616
L3293L
sV885.1
p617
L8447L
sV752.31
p618
L8885L
sVV09.81
p619
L5067L
sV214.8
p620
L1556L
sVV02.69
p621
L7807L
sV443.81
p622
L1417L
sV618.05
p623
L8719L
sV786.6
p624
L1487L
sV246.9
p625
L1873L
sV669.03
p626
L5466L
sVV63.9
p627
L1494L
sV770.89
p628
L2031L
sV250.83
p629
L2646L
sV996.67
p630
L1710L
sV776.7
p631
L5435L
sV718.38
p632
L6009L
sVV25.03
p633
L383L
sV365.02
p634
L2421L
sV429.71
p635
L5928L
sV524.51
p636
L8765L
sV410.32
p637
L8908L
sV456.8
p638
L4197L
sVV57.9
p639
L3152L
sVV71.1
p640
L944L
sVV12.52
p641
L2977L
sV304.03
p642
L1433L
sV727.81
p643
L2131L
sV385.03
p644
L8912L
sVV73.88
p645
L2356L
sV388.45
p646
L6203L
sV715.35
p647
L1102L
sVV62.3
p648
L2705L
sV614.2
p649
L3347L
sV789.36
p650
L4653L
sV280.0
p651
L1324L
sV200.46
p652
L6750L
sV361.31
p653
L7L
sV381.7
p654
L8928L
sVV60.89
p655
L7084L
sV754.40
p656
L8441L
sV008.61
p657
L8226L
sV250.01
p658
L309L
sV303.93
p659
L1337L
sV675.11
p660
L6645L
sVE828.0
p661
L8467L
sV744.42
p662
L8418L
sV789.60
p663
L4355L
sVE006.4
p664
L5953L
sV432.1
p665
L41L
sV307.89
p666
L2465L
sV493.2
p667
L3321L
sVV54.12
p668
L3238L
sV255.41
p669
L1044L
sVV17.81
p670
L4938L
sVV15.29
p671
L1245L
sV567.89
p672
L5993L
sV905.5
p673
L3332L
sV903.9
p674
L1270L
sV374.86
p675
L2486L
sV041.2
p676
L1742L
sV381.19
p677
L7034L
sV041.7
p678
L2805L
sV327.51
p679
L2220L
sV312.4
p680
L2501L
sV816.13
p681
L6006L
sV079.2
p682
L3176L
sV521.40
p683
L6913L
sVV45.12
p684
L3831L
sVV08
p685
L1555L
sV733.98
p686
L5136L
sVV13.65
p687
L4531L
sV576.3
p688
L6184L
sV285.1
p689
L426L
sV674.30
p690
L2106L
sV756.6
p691
L3148L
sV173.4
p692
L8701L
sV428.33
p693
L1865L
sV646.62
p694
L787L
sV523.10
p695
L2653L
sV079.99
p696
L1162L
sV944.41
p697
L7966L
sV362.57
p698
L3057L
sV996.89
p699
L2935L
sV764.90
p700
L8761L
sV599.2
p701
L7285L
sV079.53
p702
L3845L
sVV85.43
p703
L3454L
sV933.0
p704
L5654L
sV715.27
p705
L5929L
sV102.2
p706
L8929L
sV079.89
p707
L4061L
sV569.89
p708
L1411L
sV659.73
p709
L2014L
sV295.64
p710
L4643L
sV171.8
p711
L7974L
sV626.3
p712
L7308L
sV640.93
p713
L2967L
sV844.3
p714
L5873L
sVV13.22
p715
L5801L
sV276.50
p716
L962L
sV259.8
p717
L5697L
sV795.81
p718
L1237L
sV820.01
p719
L6061L
sV716.16
p720
L3102L
sV788.64
p721
L4275L
sV719.66
p722
L1894L
sV746.6
p723
L2405L
sV845.03
p724
L3613L
sV646.61
p725
L5695L
sV427.31
p726
L184L
sV720.89
p727
L2386L
sV715.16
p728
L1158L
sV115.09
p729
L7824L
sVV15.08
p730
L3114L
sV788.20
p731
L556L
sV648.90
p732
L3934L
sV290.12
p733
L3328L
sV919.7
p734
L6691L
sVV40.9
p735
L1967L
sV861.01
p736
L6418L
sV873.21
p737
L5984L
sV789.41
p738
L8774L
sV368.02
p739
L4713L
sV844.8
p740
L1008L
sV643.93
p741
L774L
sV296.42
p742
L734L
sV748.4
p743
L7592L
sV813.01
p744
L3565L
sVV05.4
p745
L2909L
sV112.1
p746
L324L
sV280.9
p747
L438L
sV372.31
p748
L7436L
sV078.82
p749
L8861L
sV597.0
p750
L8187L
sV286.3
p751
L3506L
sV624.09
p752
L5098L
sV729.50
p753
L3030L
sVV90.33
p754
L7490L
sV789.35
p755
L5250L
sV249.71
p756
L5747L
sV718.84
p757
L4118L
sV410.81
p758
L7780L
sV491.2
p759
L5627L
sV780.72
p760
L169L
sV769
p761
L5571L
sV658.23
p762
L6117L
sV999.5
p763
L5608L
sV360.01
p764
L4685L
sV815.10
p765
L6766L
sV560.0
p766
L5677L
sV646.33
p767
L2018L
sV236.2
p768
L1491L
sV424.99
p769
L3833L
sV278.03
p770
L1178L
sV673.20
p771
L7922L
sVV53.8
p772
L4396L
sVE849.7
p773
L2461L
sVV67.3
p774
L8762L
sV518.81
p775
L93L
sV583.6
p776
L7150L
sV945.02
p777
L947L
sVE813.1
p778
L2905L
sV785.52
p779
L938L
sV733.10
p780
L6497L
sV719.96
p781
L723L
sV516.1
p782
L8887L
sV368.13
p783
L2206L
sV630
p784
L6252L
sV724.4
p785
L352L
sV704.41
p786
L5622L
sV733.82
p787
L1114L
sV375.20
p788
L1675L
sV646.53
p789
L783L
sVV70.4
p790
L1202L
sV526.0
p791
L8989L
sVV10.53
p792
L6835L
sV749.04
p793
L3682L
sV747.32
p794
L7757L
sV380.21
p795
L3761L
sV041.12
p796
L145L
sV735.4
p797
L485L
sV923.20
p798
L798L
sVV49.82
p799
L8190L
sV879.0
p800
L1888L
sV750.29
p801
L6169L
sV845.13
p802
L4089L
sVV76.52
p803
L6062L
sV581.89
p804
L4586L
sV649.10
p805
L7045L
sV366.19
p806
L212L
sV352.9
p807
L4426L
sV669.81
p808
L5774L
sVE849.0
p809
L753L
sVV26.0
p810
L5424L
sV620.2
p811
L377L
sVV85.51
p812
L7147L
sV873.69
p813
L4251L
sV633.10
p814
L2307L
sV440.32
p815
L8581L
sV378.85
p816
L7557L
sV642.90
p817
L8059L
sV647.91
p818
L8769L
sV523.9
p819
L2052L
sV760.75
p820
L7947L
sV389.03
p821
L3354L
sV718.36
p822
L3258L
sV518.3
p823
L1175L
sV299.01
p824
L5078L
sV556.5
p825
L7346L
sV599.4
p826
L7628L
sV864.05
p827
L6246L
sV001.9
p828
L8644L
sV614.8
p829
L839L
sV788.39
p830
L652L
sVV14.0
p831
L447L
sV305.91
p832
L3609L
sVE819.1
p833
L5033L
sV736.79
p834
L1553L
sV940.0
p835
L8541L
sV372.22
p836
L4880L
sV865.09
p837
L5284L
sV011.20
p838
L5170L
sV388.69
p839
L3685L
sV348.4
p840
L3874L
sVV20.2
p841
L366L
sV307.80
p842
L4902L
sV813.23
p843
L4626L
sV291.1
p844
L2341L
sV198.3
p845
L3126L
sV581.2
p846
L8556L
sV880.09
p847
L7640L
sV654.93
p848
L4232L
sV300.20
p849
L1976L
sVV64.3
p850
L1658L
sV305.62
p851
L4030L
sV208.00
p852
L3640L
sV758.33
p853
L6269L
sVE868.2
p854
L4808L
sV236.0
p855
L3090L
sV777.50
p856
L4673L
sVE950.2
p857
L5804L
sV569.49
p858
L1847L
sV729.71
p859
L5550L
sV998.11
p860
L877L
sV272.7
p861
L5346L
sV078.89
p862
L3093L
sV590.3
p863
L8672L
sV313.0
p864
L4782L
sV099.40
p865
L4961L
sV743.63
p866
L7427L
sVV58.67
p867
L680L
sV217
p868
L2884L
sV742.59
p869
L2952L
sV478.5
p870
L2749L
sV743.62
p871
L7889L
sVE969
p872
L3305L
sV745.11
p873
L7960L
sV250.10
p874
L2352L
sV305.52
p875
L5148L
sV556.8
p876
L2946L
sV296.66
p877
L6802L
sVV11.0
p878
L1935L
sV255.12
p879
L6863L
sV789.37
p880
L3811L
sV944.36
p881
L9026L
sV170.6
p882
L6915L
sV656.41
p883
L7081L
sV848.40
p884
L5829L
sV136.9
p885
L544L
sV295.70
p886
L1403L
sV785.6
p887
L835L
sV009.2
p888
L3730L
sV449
p889
L4359L
sV714.9
p890
L1884L
sV626.4
p891
L646L
sV661.93
p892
L1802L
sV339.01
p893
L6906L
sVV45.82
p894
L1031L
sV910.1
p895
L5376L
sV998.82
p896
L4912L
sV969.0
p897
L7390L
sV648.14
p898
L7076L
sVE812.7
p899
L6783L
sV977.9
p900
L1216L
sV972.4
p901
L8038L
sVV66.7
p902
L2074L
sVV10.51
p903
L4693L
sVV10.52
p904
L1168L
sV865.12
p905
L8404L
sV823.21
p906
L5064L
sV472.2
p907
L6487L
sV312.32
p908
L7184L
sV621.32
p909
L1983L
sV661.31
p910
L6054L
sV999.83
p911
L5593L
sV365.04
p912
L2506L
sV851.46
p913
L8974L
sV440.0
p914
L313L
sV786.03
p915
L1195L
sV569.69
p916
L3434L
sVV83.01
p917
L6810L
sV154.0
p918
L310L
sV279.52
p919
L8298L
sV464.31
p920
L8176L
sV402.90
p921
L2436L
sV716.81
p922
L2531L
sV719.08
p923
L3748L
sV202.10
p924
L7441L
sV208.10
p925
L3767L
sV079.6
p926
L3467L
sV814.00
p927
L1591L
sV757.9
p928
L3507L
sV174.2
p929
L5582L
sV455.3
p930
L1292L
sV424.3
p931
L1294L
sV575.8
p932
L369L
sV747.41
p933
L8784L
sV757.4
p934
L7754L
sVE944.4
p935
L2119L
sV996.84
p936
L6832L
sVV67.01
p937
L2623L
sV200.25
p938
L8238L
sV825.35
p939
L8942L
sV813.08
p940
L8042L
sVE008.4
p941
L3538L
sV726.60
p942
L2645L
sVV26.49
p943
L3075L
sV716.22
p944
L5862L
sV904.8
p945
L959L
sV239.9
p946
L2552L
sV649.01
p947
L2104L
sV781.7
p948
L4065L
sV749.02
p949
L5262L
sV576.8
p950
L700L
sV645.11
p951
L2343L
sV730.94
p952
L8671L
sVE922.2
p953
L7798L
sV878.6
p954
L6602L
sV428.32
p955
L202L
sV756.73
p956
L4681L
sV288.1
p957
L7096L
sV730.04
p958
L5889L
sV726.0
p959
L3161L
sV997.79
p960
L8960L
sV723.1
p961
L88L
sV373.11
p962
L278L
sV736.31
p963
L5006L
sV943.00
p964
L7275L
sV228.1
p965
L7093L
sV620.4
p966
L7607L
sV786.50
p967
L58L
sV237.5
p968
L3653L
sV389.18
p969
L1101L
sV890.1
p970
L881L
sV665.81
p971
L6296L
sV789.05
p972
L505L
sV241.1
p973
L906L
sV345.60
p974
L5923L
sV304.12
p975
L7375L
sV839.06
p976
L7038L
sV047.8
p977
L7658L
sV524.03
p978
L8319L
sV761.3
p979
L6340L
sV428.3
p980
L5184L
sV307.59
p981
L5668L
sV078.2
p982
L7158L
sV736.71
p983
L5076L
sV464.01
p984
L6977L
sV960.4
p985
L6179L
sV478.4
p986
L2750L
sV814.12
p987
L7761L
sV094.89
p988
L7017L
sV536.40
p989
L4882L
sV603.9
p990
L2493L
sV623.0
p991
L3045L
sV792.0
p992
L5318L
sVV01.1
p993
L2369L
sV747.39
p994
L6902L
sV643.23
p995
L1763L
sV070.30
p996
L1786L
sV649.11
p997
L1907L
sV942.23
p998
L3957L
sV277.6
p999
L4998L
sV361.9
p1000
L3277L
sV598.1
p1001
L8710L
sVV46.8
p1002
L5359L
sV305.51
p1003
L1448L
sV369.63
p1004
L7733L
sV671.31
p1005
L5962L
sV334.2
p1006
L6165L
sV478.19
p1007
L1013L
sV663.83
p1008
L5507L
sV524.81
p1009
L8278L
sV342.92
p1010
L5302L
sV307.45
p1011
L6708L
sVV15.81
p1012
L679L
sV836.50
p1013
L2384L
sV863.30
p1014
L5902L
sV944.22
p1015
L7226L
sV341.0
p1016
L6515L
sV868.04
p1017
L6932L
sV375.15
p1018
L1520L
sV915.6
p1019
L5547L
sV008.3
p1020
L7766L
sV313.81
p1021
L1274L
sV626.8
p1022
L2142L
sV031.9
p1023
L7072L
sV838.03
p1024
L6199L
sV355.0
p1025
L1118L
sV375.52
p1026
L4222L
sV940.4
p1027
L8387L
sV301.83
p1028
L1349L
sV997.2
p1029
L2851L
sVV91.03
p1030
L4474L
sVV02.51
p1031
L4478L
sV507.8
p1032
L6074L
sV464.30
p1033
L4631L
sVV24.2
p1034
L2582L
sV305.40
p1035
L608L
sVV05.3
p1036
L1818L
sV383.89
p1037
L3643L
sV894.2
p1038
L7622L
sVE886.9
p1039
L5986L
sV775.1
p1040
L8676L
sV361.07
p1041
L4310L
sV365.71
p1042
L2951L
sV611.0
p1043
L1126L
sV295.83
p1044
L3823L
sV524.20
p1045
L8723L
sV295.43
p1046
L7206L
sV794.7
p1047
L7774L
sV174.0
p1048
L6820L
sV729.39
p1049
L6627L
sV730.96
p1050
L1716L
sV952.9
p1051
L2491L
sV372.41
p1052
L4518L
sV780.52
p1053
L275L
sV174.4
p1054
L2478L
sV250.71
p1055
L2327L
sV242.10
p1056
L2715L
sV823.32
p1057
L4639L
sV654.43
p1058
L776L
sV516.0
p1059
L8056L
sV539.89
p1060
L7429L
sV706.9
p1061
L6663L
sV749.25
p1062
L3673L
sVE910.4
p1063
L6267L
sV458.21
p1064
L2122L
sV998.59
p1065
L879L
sV942.09
p1066
L8309L
sV371.00
p1067
L1072L
sV807.4
p1068
L5176L
sV649.41
p1069
L3498L
sV959.6
p1070
L632L
sV362.85
p1071
L9015L
sV079.83
p1072
L8294L
sV571.5
p1073
L290L
sV173.62
p1074
L4636L
sV708.9
p1075
L2266L
sV992.5
p1076
L4737L
sV890.0
p1077
L763L
sVE937.8
p1078
L5061L
sV921.2
p1079
L3600L
sV747.21
p1080
L7453L
sV366.10
p1081
L766L
sV716.88
p1082
L2209L
sV031.0
p1083
L4016L
sV719.70
p1084
L5913L
sV833.09
p1085
L6149L
sV456.0
p1086
L3369L
sV346.10
p1087
L1488L
sVV28.1
p1088
L5590L
sV944.26
p1089
L4801L
sVE920.8
p1090
L2025L
sV235.5
p1091
L4833L
sV716.46
p1092
L5874L
sV339.00
p1093
L5060L
sV709.1
p1094
L5223L
sVV68.89
p1095
L214L
sV718.31
p1096
L4849L
sV296.25
p1097
L3621L
sV375.01
p1098
L7360L
sV336.2
p1099
L7522L
sV842.09
p1100
L1788L
sV934.9
p1101
L2896L
sV650
p1102
L791L
sV491.8
p1103
L2423L
sV376.03
p1104
L7519L
sV389.01
p1105
L8410L
sV429.81
p1106
L8104L
sV794.19
p1107
L686L
sVE849.4
p1108
L1147L
sV881.11
p1109
L2488L
sV007.0
p1110
L8311L
sVE929.9
p1111
L5607L
sV307.40
p1112
L2894L
sV656.83
p1113
L2113L
sV806.20
p1114
L5987L
sV659.13
p1115
L7262L
sV111.0
p1116
L5579L
sVV63.0
p1117
L639L
sVV69.8
p1118
L3851L
sVV26.9
p1119
L8360L
sV720.0
p1120
L1511L
sV839.8
p1121
L4602L
sV788.21
p1122
L1910L
sV754.59
p1123
L4421L
sV863.55
p1124
L4011L
sV872.00
p1125
L6679L
sV307.50
p1126
L2840L
sV944.38
p1127
L7277L
sV722.72
p1128
L3437L
sV374.52
p1129
L8800L
sV411.0
p1130
L66L
sV301.13
p1131
L2836L
sV806.32
p1132
L8214L
sVE920.0
p1133
L8433L
sV372.11
p1134
L6809L
sV354.0
p1135
L979L
sVV54.89
p1136
L1142L
sV194.0
p1137
L7744L
sV914.2
p1138
L3035L
sV799.22
p1139
L2029L
sV658.11
p1140
L3500L
sV188.1
p1141
L8302L
sVV12.21
p1142
L6118L
sV530.10
p1143
L462L
sV190.1
p1144
L8873L
sV958.7
p1145
L2149L
sV696.8
p1146
L3586L
sV657.01
p1147
L5155L
sV324.1
p1148
L5678L
sV719.80
p1149
L1109L
sV781.5
p1150
L4059L
sV993.2
p1151
L5339L
sV646.31
p1152
L5266L
sV906.7
p1153
L958L
sV640.91
p1154
L8462L
sV351.0
p1155
L475L
sV715.94
p1156
L359L
sV388.71
p1157
L993L
sV347.00
p1158
L4137L
sV385.22
p1159
L2680L
sV719.05
p1160
L868L
sV373.33
p1161
L8290L
sVV17.49
p1162
L1881L
sV530.82
p1163
L4113L
sV917.1
p1164
L332L
sV789.39
p1165
L671L
sV289.7
p1166
L7191L
sV574.11
p1167
L2010L
sVV54.01
p1168
L1932L
sV923.10
p1169
L1194L
sVV61.06
p1170
L3239L
sV389.06
p1171
L5935L
sV747.63
p1172
L4327L
sV807.10
p1173
L7087L
sV442.89
p1174
L5261L
sV201.98
p1175
L6988L
sV782.2
p1176
L1424L
sV829.0
p1177
L4670L
sV195.3
p1178
L4086L
sV372.42
p1179
L5529L
sVV09.90
p1180
L1351L
sV366.16
p1181
L8L
sVV58.4
p1182
L6460L
sV754.79
p1183
L5914L
sV972.1
p1184
L2980L
sV302.71
p1185
L6102L
sV209.60
p1186
L4077L
sV958.1
p1187
L8055L
sV442.2
p1188
L3256L
sV649.60
p1189
L1412L
sV504
p1190
L6674L
sV814.01
p1191
L3659L
sV663.01
p1192
L8012L
sV952.03
p1193
L8973L
sV729.91
p1194
L3584L
sV524.64
p1195
L5848L
sV977.0
p1196
L1404L
sV307.51
p1197
L4028L
sV374.21
p1198
L8337L
sV361.04
p1199
L6034L
sV079.98
p1200
L2348L
sV200.13
p1201
L8852L
sV711.07
p1202
L2647L
sV534.50
p1203
L8840L
sV424.1
p1204
L220L
sV906.1
p1205
L1341L
sV752.41
p1206
L8253L
sV873.72
p1207
L1776L
sV327.20
p1208
L1116L
sV967.1
p1209
L7784L
sV794.2
p1210
L3616L
sV201.58
p1211
L8430L
sV576.0
p1212
L2570L
sV863.0
p1213
L8812L
sV7580
p1214
L8031L
sV599.69
p1215
L2638L
sV670.20
p1216
L8023L
sVV58.61
p1217
L1065L
sV756.51
p1218
L5137L
sV770.2
p1219
L4131L
sV969.09
p1220
L1214L
sV330.3
p1221
L2407L
sV767.0
p1222
L7367L
sV114.3
p1223
L5485L
sV746.2
p1224
L7317L
sV371.20
p1225
L2068L
sV793.80
p1226
L487L
sV517.8
p1227
L2303L
sVE958.9
p1228
L1203L
sV893.1
p1229
L1679L
sV784.7
p1230
L60L
sV944.20
p1231
L4803L
sV202.84
p1232
L5758L
sV428.1
p1233
L1867L
sV368.44
p1234
L5505L
sV595.89
p1235
L5353L
sV314.0
p1236
L6290L
sV209.00
p1237
L4342L
sV959.4
p1238
L1500L
sV718.11
p1239
L6588L
sV669.71
p1240
L615L
sV659.21
p1241
L8084L
sV307.22
p1242
L5309L
sV440.24
p1243
L2323L
sV525.67
p1244
L8674L
sV377.34
p1245
L7138L
sVV12.60
p1246
L3724L
sV209.63
p1247
L7431L
sV202.11
p1248
L7443L
sVV49.1
p1249
L2057L
sV923.8
p1250
L4692L
sV099.49
p1251
L5612L
sV287.8
p1252
L4199L
sV294.0
p1253
L4380L
sV348.3
p1254
L7040L
sV008.8
p1255
L1260L
sV727.40
p1256
L3824L
sV162.9
p1257
L1244L
sVV10.47
p1258
L8196L
sV839.40
p1259
L7092L
sVV15.89
p1260
L1218L
sV937
p1261
L4649L
sVV12.04
p1262
L154L
sVE870.0
p1263
L5276L
sV780.7
p1264
L8325L
sVE942.9
p1265
L4244L
sV626.2
p1266
L637L
sV674.14
p1267
L7255L
sV658.90
p1268
L7638L
sVV10.12
p1269
L8987L
sV999.33
p1270
L5693L
sVE849.9
p1271
L815L
sVE932.0
p1272
L2462L
sV621.30
p1273
L1986L
sV384.82
p1274
L8167L
sV770.3
p1275
L8937L
sV711.99
p1276
L5684L
sV355.79
p1277
L3825L
sVV74.5
p1278
L418L
sV642.73
p1279
L3288L
sV641.91
p1280
L6673L
sV882.2
p1281
L3708L
sV342.10
p1282
L4100L
sVE940.1
p1283
L6214L
sV799.3
p1284
L171L
sVE800.0
p1285
L8011L
sV839.05
p1286
L8180L
sV726.71
p1287
L2135L
sV839.21
p1288
L7872L
sV451.89
p1289
L4047L
sV975.4
p1290
L2042L
sV213.7
p1291
L5220L
sV765.05
p1292
L4471L
sV338.3
p1293
L2295L
sV674.32
p1294
L2102L
sV602.0
p1295
L6081L
sV173.29
p1296
L6589L
sVV45.2
p1297
L2561L
sV711.10
p1298
L4051L
sV626.0
p1299
L775L
sV626.5
p1300
L5180L
sV008.49
p1301
L8793L
sV718.48
p1302
L6024L
sVV86.0
p1303
L2766L
sV880.00
p1304
L5706L
sV733.96
p1305
L6651L
sV296.45
p1306
L3809L
sV270.6
p1307
L536L
sVV78.9
p1308
L5036L
sVE871.0
p1309
L8140L
sV433.31
p1310
L4754L
sV288.62
p1311
L7551L
sV269.8
p1312
L4777L
sV482.41
p1313
L5370L
sV521.25
p1314
L6636L
sV599.70
p1315
L411L
sV459.39
p1316
L3536L
sV721.8
p1317
L1396L
sV054.6
p1318
L6941L
sV695.2
p1319
L4044L
sV045.91
p1320
L4107L
sV349.31
p1321
L7457L
sV184.9
p1322
L7296L
sV604.90
p1323
L4495L
sV414.4
p1324
L4360L
sV530.0
p1325
L2767L
sV444.81
p1326
L1992L
sV850.0
p1327
L1828L
sV327.36
p1328
L8041L
sV372.30
p1329
L1497L
sV411.81
p1330
L4498L
sV380.81
p1331
L8310L
sV803.00
p1332
L5010L
sVE920.3
p1333
L1923L
sV787.03
p1334
L975L
sV327.22
p1335
L6789L
sV372.54
p1336
L7888L
sV203.00
p1337
L336L
sV969.3
p1338
L4120L
sV642.20
p1339
L6621L
sV523.30
p1340
L5546L
sV758.7
p1341
L7022L
sV722.2
p1342
L1988L
sV802.7
p1343
L7162L
sV348.89
p1344
L35L
sV995.89
p1345
L7074L
sV719.61
p1346
L2234L
sV753.5
p1347
L5897L
sV821.22
p1348
L7656L
sV534.70
p1349
L5209L
sV377.41
p1350
L3080L
sV134.0
p1351
L7304L
sV054.10
p1352
L1123L
sV560.81
p1353
L857L
sV414.8
p1354
L1927L
sV355.9
p1355
L702L
sV801.90
p1356
L7256L
sV713.1
p1357
L8620L
sV338.11
p1358
L633L
sVV85.54
p1359
L1692L
sV719.94
p1360
L5769L
sVE917.9
p1361
L1546L
sVV70.9
p1362
L2358L
sV732.7
p1363
L5357L
sV296.10
p1364
L5956L
sV909.3
p1365
L6392L
sV785.2
p1366
L230L
sV056.71
p1367
L5354L
sVE932.3
p1368
L3389L
sV927.10
p1369
L7833L
sV692.83
p1370
L4674L
sV569.83
p1371
L3516L
sV982.8
p1372
L7188L
sV952.10
p1373
L6653L
sV746.9
p1374
L3807L
sV871.3
p1375
L5563L
sV673.83
p1376
L8804L
sVE858.1
p1377
L7931L
sV305.72
p1378
L5957L
sV364.9
p1379
L5278L
sV362.82
p1380
L6095L
sV949.1
p1381
L6362L
sV833.01
p1382
L8715L
sV754.33
p1383
L5004L
sV474.02
p1384
L6786L
sV255.6
p1385
L8802L
sV361.11
p1386
L8075L
sVV62.5
p1387
L2733L
sV737.0
p1388
L3966L
sV516.30
p1389
L6185L
sV642.13
p1390
L6921L
sV552.1
p1391
L3283L
sV806.24
p1392
L8629L
sVE942.6
p1393
L3425L
sV139.8
p1394
L5379L
sV427.0
p1395
L1327L
sV305.90
p1396
L199L
sV676.63
p1397
L7011L
sV904.2
p1398
L7384L
sV512.81
p1399
L5159L
sV823.92
p1400
L6261L
sV254.0
p1401
L7989L
sV565.1
p1402
L3713L
sV531.40
p1403
L2802L
sVE989
p1404
L38L
sV730.08
p1405
L3350L
sVE812.9
p1406
L2463L
sV287.1
p1407
L3529L
sV357.2
p1408
L192L
sV707.05
p1409
L924L
sV300.23
p1410
L4117L
sVV18.2
p1411
L8843L
sV718.92
p1412
L6587L
sV747.61
p1413
L6699L
sV649.21
p1414
L8834L
sV441.9
p1415
L1944L
sV363.8
p1416
L8217L
sV607.1
p1417
L1264L
sV327.44
p1418
L8020L
sV8
p1419
L6558L
sV513.0
p1420
L1325L
sV414.10
p1421
L5121L
sV602.8
p1422
L1936L
sV451.11
p1423
L1518L
sV616.4
p1424
L1153L
sV388.42
p1425
L6155L
sVE879.8
p1426
L1707L
sV655.23
p1427
L3933L
sVV15.42
p1428
L4346L
sV619.9
p1429
L7911L
sV391.9
p1430
L7488L
sV428.23
p1431
L2616L
sV793.11
p1432
L299L
sV296.50
p1433
L1099L
sV333.90
p1434
L3211L
sV787.2
p1435
L8382L
sVV67.09
p1436
L875L
sV251.9
p1437
L5941L
sV518.1
p1438
L103L
sV289.6
p1439
L1516L
sV438.19
p1440
L5795L
sV962.6
p1441
L6286L
sV482.42
p1442
L84L
sVV15.6
p1443
L8611L
sV658.01
p1444
L613L
sV053.0
p1445
L4752L
sV672.02
p1446
L790L
sV750.6
p1447
L7623L
sV333.4
p1448
L1050L
sV648.20
p1449
L5473L
sV755.21
p1450
L8369L
sV655.80
p1451
L3908L
sVV54.81
p1452
L872L
sV600.90
p1453
L1033L
sV658.13
p1454
L4485L
sV851.49
p1455
L8975L
sV333.83
p1456
L4567L
sV599.7
p1457
L6781L
sV295.93
p1458
L6216L
sV852.25
p1459
L7383L
sV581.0
p1460
L7399L
sVE008.0
p1461
L7822L
sV441.03
p1462
L6775L
sV360.12
p1463
L3280L
sV456.20
p1464
L977L
sV811.02
p1465
L8566L
sV848.8
p1466
L1691L
sV173.7
p1467
L8673L
sV532.30
p1468
L2918L
sV530.9
p1469
L554L
sV344.09
p1470
L1735L
sV348.5
p1471
L3615L
sV163.9
p1472
L8123L
sVE906.8
p1473
L3182L
sV821.31
p1474
L5912L
sV440.4
p1475
L1991L
sV721.42
p1476
L1319L
sVV02.8
p1477
L8603L
sV386.50
p1478
L6176L
sV786.2
p1479
L55L
sV718.76
p1480
L7354L
sV681.10
p1481
L511L
sV903.1
p1482
L6917L
sV039.8
p1483
L7180L
sV569.61
p1484
L6293L
sV868.03
p1485
L4758L
sVE853.0
p1486
L8216L
sV722.0
p1487
L480L
sV520.0
p1488
L8971L
sV727.49
p1489
L3286L
sV575.6
p1490
L2677L
sV066.1
p1491
L8115L
sV331.11
p1492
L8564L
sV799.02
p1493
L140L
sV748.8
p1494
L8181L
sV775.81
p1495
L8245L
sVV88.22
p1496
L6499L
sV438.11
p1497
L3751L
sVE030
p1498
L3997L
sV698.1
p1499
L629L
sV897.4
p1500
L4299L
sV715.97
p1501
L1423L
sV878.7
p1502
L8166L
sVV53.50
p1503
L7876L
sV116.0
p1504
L4528L
sVV16.49
p1505
L5908L
sV493.0
p1506
L4450L
sV999.89
p1507
L7973L
sV300.6
p1508
L6135L
sV945.21
p1509
L7280L
sV607.84
p1510
L251L
sVV77.8
p1511
L7612L
sV882.1
p1512
L1352L
sV534.90
p1513
L1752L
sV944.23
p1514
L4370L
sV331.3
p1515
L2412L
sV780.95
p1516
L4897L
sV362.01
p1517
L436L
sV099.55
p1518
L381L
sV382.9
p1519
L538L
sV621.1
p1520
L6683L
sV716.09
p1521
L4994L
sV571.49
p1522
L1308L
sV359.3
p1523
L7502L
sV751.0
p1524
L7217L
sV980.2
p1525
L5569L
sVV27.1
p1526
L7083L
sV201.01
p1527
L7143L
sV410.12
p1528
L6249L
sV459.0
p1529
L219L
sV730.36
p1530
L8312L
sV357.0
p1531
L4773L
sVV15.41
p1532
L1402L
sV945.39
p1533
L5823L
sV296.31
p1534
L1670L
sVV56.8
p1535
L3637L
sVE930.9
p1536
L4366L
sV780.94
p1537
L3432L
sV773.1
p1538
L2035L
sVV61.7
p1539
L4551L
sV996.45
p1540
L8713L
sVV88.01
p1541
L1184L
sV366.09
p1542
L6963L
sVV54.29
p1543
L827L
sV840.9
p1544
L1262L
sV488.02
p1545
L4316L
sV652.83
p1546
L7803L
sV517.2
p1547
L7159L
sVV15.9
p1548
L1381L
sV422.91
p1549
L8688L
sV427.32
p1550
L1280L
sV669.21
p1551
L8013L
sVV41.1
p1552
L4313L
sVE980.9
p1553
L3654L
sV694.0
p1554
L8262L
sV111.8
p1555
L3298L
sV599.9
p1556
L3547L
sV435.8
p1557
L4400L
sVV66.2
p1558
L853L
sV816.01
p1559
L2511L
sV596.0
p1560
L3077L
sV649.00
p1561
L3273L
sV368.59
p1562
L8525L
sV386.30
p1563
L996L
sVV04.82
p1564
L8412L
sV196.6
p1565
L5538L
sV840.1
p1566
L8927L
sV722.80
p1567
L2950L
sV839.02
p1568
L5315L
sV996.32
p1569
L4577L
sV521.21
p1570
L6597L
sV625.4
p1571
L2972L
sV377.52
p1572
L7902L
sV854.16
p1573
L8878L
sV982.0
p1574
L8194L
sV664.60
p1575
L8092L
sV296.03
p1576
L2954L
sV998.13
p1577
L1959L
sV224.2
p1578
L7362L
sV664.11
p1579
L5961L
sV755.53
p1580
L8978L
sV969.73
p1581
L8027L
sV989.9
p1582
L2628L
sV910.0
p1583
L1193L
sV448.9
p1584
L6700L
sV404.00
p1585
L6512L
sV910.2
p1586
L6626L
sV482.9
p1587
L291L
sV359.21
p1588
L7247L
sV008.04
p1589
L7944L
sV760.1
p1590
L8255L
sV295.50
p1591
L4893L
sV304.80
p1592
L2140L
sV040.81
p1593
L8010L
sV997.02
p1594
L3777L
sVV41.6
p1595
L1837L
sV945.29
p1596
L8480L
sV288.69
p1597
L2862L
sV379.90
p1598
L5619L
sV959.2
p1599
L810L
sV289.83
p1600
L2847L
sV690.10
p1601
L1336L
sV300.9
p1602
L985L
sV730.19
p1603
L6391L
sV386.11
p1604
L1108L
sVV28.3
p1605
L769L
sV365.11
p1606
L498L
sV310.2
p1607
L3413L
sV484.3
p1608
L8424L
sV377.14
p1609
L3082L
sV536.42
p1610
L3271L
sV995.21
p1611
L4046L
sV743.57
p1612
L2404L
sV716.54
p1613
L5843L
sV355.71
p1614
L4759L
sV789.7
p1615
L6215L
sV995.93
p1616
L2982L
sV136.3
p1617
L6703L
sV362.33
p1618
L213L
sV376.81
p1619
L5130L
sV986
p1620
L4807L
sV315.34
p1621
L3242L
sV648.42
p1622
L6875L
sV380.23
p1623
L4091L
sV820.9
p1624
L5966L
sV873.40
p1625
L2610L
sV622.7
p1626
L4341L
sV303.92
p1627
L1210L
sVE814.9
p1628
L7393L
sV878.2
p1629
L6419L
sV341.20
p1630
L6657L
sVE967.1
p1631
L5703L
sV746.5
p1632
L3013L
sV652.31
p1633
L7136L
sV299.80
p1634
L3401L
sV151.6
p1635
L7460L
sV372.62
p1636
L7163L
sV369.24
p1637
L7281L
sVV06.4
p1638
L4635L
sV848.0
p1639
L8019L
sV996.64
p1640
L1743L
sV041.82
p1641
L7283L
sV945.23
p1642
L6103L
sV639.1
p1643
L5332L
sV533.20
p1644
L8182L
sVV13.9
p1645
L4452L
sV700
p1646
L1793L
sV282.41
p1647
L8615L
sV897.2
p1648
L1890L
sVE878.1
p1649
L1703L
sV717.2
p1650
L3268L
sV277.02
p1651
L6075L
sV369.10
p1652
L3226L
sV780.96
p1653
L263L
sV373.13
p1654
L761L
sV320.1
p1655
L3795L
sVV12.29
p1656
L2579L
sVV10.21
p1657
L3768L
sV851.89
p1658
L9012L
sV967.9
p1659
L5022L
sV002.0
p1660
L5896L
sVV22.2
p1661
L587L
sV608.1
p1662
L5490L
sV054.2
p1663
L1985L
sV523.42
p1664
L5062L
sVE941.1
p1665
L8399L
sV996.44
p1666
L7111L
sV914.1
p1667
L1357L
sV282.63
p1668
L8614L
sV835.03
p1669
L5969L
sV994.8
p1670
L3224L
sV959.5
p1671
L2657L
sVV55.6
p1672
L3644L
sV202.03
p1673
L2375L
sVL946
p1674
L8191L
sV414.0
p1675
L4733L
sV535.50
p1676
L626L
sV180.9
p1677
L3279L
sV799.99
p1678
L5818L
sV416.8
p1679
L315L
sV349.0
p1680
L3804L
sV458.8
p1681
L2241L
sV727.01
p1682
L6720L
sV281.9
p1683
L190L
sV594.8
p1684
L4570L
sV525.40
p1685
L3378L
sV524.4
p1686
L7773L
sV851.86
p1687
L8596L
sV793.2
p1688
L1281L
sV142.40
p1689
L8836L
sVE826.1
p1690
L5007L
sV446.5
p1691
L5565L
sV784.51
p1692
L3270L
sV233.39
p1693
L7338L
sV395.0
p1694
L4986L
sV615.1
p1695
L8584L
sV256.1
p1696
L7699L
sV931
p1697
L3235L
sVV14.4
p1698
L3342L
sV695.15
p1699
L4736L
sV036.0
p1700
L7724L
sV811.09
p1701
L3662L
sV724.09
p1702
L3250L
sV718.07
p1703
L7434L
sV665.41
p1704
L8427L
sV239.2
p1705
L1678L
sVV64.1
p1706
L3527L
sV914.7
p1707
L5504L
sV385.24
p1708
L5822L
sV493.21
p1709
L1167L
sV292.2
p1710
L3897L
sV257.2
p1711
L2911L
sV922.9
p1712
L5233L
sV727.89
p1713
L4870L
sV385.82
p1714
L8958L
sV719.42
p1715
L1051L
sV726.5
p1716
L455L
sV752.35
p1717
L7576L
sV008.2
p1718
L7792L
sV304.90
p1719
L345L
sV652.61
p1720
L4790L
sV838.01
p1721
L8817L
sV251.1
p1722
L764L
sV435.9
p1723
L1027L
sV231.2
p1724
L6388L
sV173.32
p1725
L3888L
sV748.3
p1726
L6121L
sVE945.7
p1727
L6453L
sV795.2
p1728
L3472L
sV871.2
p1729
L2665L
sV784.61
p1730
L6284L
sV996.47
p1731
L1163L
sV305.32
p1732
L8850L
sV453.74
p1733
L8607L
sV942.34
p1734
L8684L
sV781.4
p1735
L4262L
sVV76.12
p1736
L479L
sV799.23
p1737
L6202L
sV733.03
p1738
L5279L
sV658.91
p1739
L611L
sV908.6
p1740
L4344L
sV783.0
p1741
L1549L
sV283.9
p1742
L6531L
sV054.43
p1743
L3225L
sV709.8
p1744
L1626L
sV728.12
p1745
L6129L
sV950.9
p1746
L5516L
sV758.81
p1747
L6230L
sVV13.52
p1748
L8545L
sV110.5
p1749
L1090L
sV736.1
p1750
L6625L
sV646.43
p1751
L3606L
sV593.73
p1752
L7797L
sV894.1
p1753
L3416L
sV604.91
p1754
L6630L
sVV10.03
p1755
L265L
sV535.30
p1756
L3358L
sV516.4
p1757
L1007L
sV288.51
p1758
L2770L
sV041.10
p1759
L1460L
sV574.70
p1760
L6471L
sV759.83
p1761
L7998L
sVV45.71
p1762
L907L
sV944.13
p1763
L8515L
sV989.84
p1764
L6623L
sV637.71
p1765
L5859L
sV131.09
p1766
L8538L
sVE967.4
p1767
L6801L
sVV10.79
p1768
L2372L
sV995.84
p1769
L4167L
sV658.31
p1770
L4704L
sV780.09
p1771
L30L
sV704.1
p1772
L3171L
sV590.81
p1773
L6957L
sV054.8
p1774
L5790L
sV282.47
p1775
L8332L
sV127.2
p1776
L8281L
sV574.40
p1777
L5108L
sV753.3
p1778
L3487L
sV381.02
p1779
L7652L
sVV86.1
p1780
L4908L
sV617.0
p1781
L2300L
sV343.2
p1782
L3198L
sV336.8
p1783
L3137L
sV616.2
p1784
L4647L
sV322.2
p1785
L5083L
sV653.33
p1786
L8546L
sV759.6
p1787
L5698L
sV730.80
p1788
L6109L
sV007.2
p1789
L8717L
sV832.09
p1790
L7587L
sV041.04
p1791
L2281L
sV796.0
p1792
L386L
sV787.3
p1793
L767L
sV013.50
p1794
L6063L
sV682.0
p1795
L746L
sV676.50
p1796
L2709L
sV353.1
p1797
L5498L
sVV43.89
p1798
L7059L
sV526.5
p1799
L5201L
sV965.1
p1800
L4648L
sV790.7
p1801
L156L
sV016.95
p1802
L7199L
sV753.4
p1803
L3489L
sV942.02
p1804
L8697L
sV995.92
p1805
L525L
sV211.6
p1806
L5919L
sV188.8
p1807
L6677L
sV202.00
p1808
L902L
sV659.80
p1809
L6960L
sV207.20
p1810
L7562L
sV367.31
p1811
L5539L
sVV66.1
p1812
L5213L
sV265.1
p1813
L2340L
sV176.8
p1814
L5712L
sV637.82
p1815
L9008L
sV206.01
p1816
L8810L
sV669.94
p1817
L8618L
sV850.2
p1818
L7126L
sV813.22
p1819
L5872L
sV524.59
p1820
L7700L
sV172.5
p1821
L2938L
sV668.84
p1822
L6970L
sVV13.00
p1823
L8170L
sV996.39
p1824
L2989L
sV368.43
p1825
L7303L
sV999.2
p1826
L5552L
sVV26.52
p1827
L7119L
sV919.5
p1828
L3631L
sV596.1
p1829
L2588L
sV627.2
p1830
L1391L
sV312.10
p1831
L7290L
sV331.83
p1832
L1937L
sV389.21
p1833
L2048L
sVV68.09
p1834
L706L
sV477.2
p1835
L1759L
sV405.91
p1836
L3039L
sV511.89
p1837
L818L
sV567.29
p1838
L5586L
sV172.9
p1839
L2937L
sV370.60
p1840
L8465L
sVV10.86
p1841
L6529L
sV775.5
p1842
L5864L
sV602.3
p1843
L8205L
sV453.83
p1844
L4564L
sVE933.0
p1845
L6867L
sV588.0
p1846
L3227L
sV453.85
p1847
L2282L
sV726.4
p1848
L3712L
sV196.2
p1849
L4115L
sV372.12
p1850
L3891L
sV295.72
p1851
L2753L
sV173.72
p1852
L5613L
sV719.54
p1853
L2823L
sV721.41
p1854
L6307L
sV730.25
p1855
L4665L
sV232.7
p1856
L5709L
sV671.23
p1857
L5685L
sVE931.4
p1858
L3731L
sV333.82
p1859
L5636L
sV344.60
p1860
L3142L
sV711.04
p1861
L8580L
sV952.2
p1862
L6722L
sV781.2
p1863
L430L
sV279.50
p1864
L3857L
sV790.91
p1865
L3817L
sV990
p1866
L2936L
sVE974
p1867
L8432L
sV879.3
p1868
L2105L
sV378.55
p1869
L7418L
sV213.0
p1870
L7214L
sV806.29
p1871
L6353L
sV648.31
p1872
L612L
sV333.85
p1873
L1080L
sV279.06
p1874
L5798L
sV583.2
p1875
L7552L
sV031.1
p1876
L6815L
sV669.42
p1877
L8743L
sV744.02
p1878
L7830L
sVV23.7
p1879
L2094L
sV850.5
p1880
L1832L
sV905.0
p1881
L6044L
sVV03.89
p1882
L365L
sVE854.2
p1883
L5157L
sV411.1
p1884
L1242L
sV320.0
p1885
L8250L
sV015.10
p1886
L8373L
sV287.39
p1887
L873L
sVV76.51
p1888
L67L
sV812.03
p1889
L2707L
sV789.61
p1890
L372L
sV250.31
p1891
L5934L
sV795.4
p1892
L8142L
sV352.5
p1893
L5760L
sV598.00
p1894
L6015L
sVE814.2
p1895
L8699L
sV904.9
p1896
L5283L
sV306.53
p1897
L5615L
sV459.9
p1898
L2554L
sV810.00
p1899
L1943L
sV288.01
p1900
L6842L
sVE850.4
p1901
L7205L
sV793.1
p1902
L1852L
sV813.07
p1903
L5878L
sV879.9
p1904
L1378L
sV381.50
p1905
L4125L
sV556.0
p1906
L5832L
sV378.83
p1907
L2024L
sV873.51
p1908
L8967L
sV728.1
p1909
L8561L
sV712.20
p1910
L7086L
sV671.83
p1911
L7250L
sV948.30
p1912
L8522L
sV870
p1913
L7618L
sV200.14
p1914
L6945L
sV564.89
p1915
L727L
sV335.10
p1916
L7689L
sV655.33
p1917
L6156L
sV364.75
p1918
L3393L
sV582.0
p1919
L4662L
sV750.8
p1920
L6367L
sV533.60
p1921
L6911L
sV230.2
p1922
L8029L
sV648.63
p1923
L4473L
sV715.80
p1924
L1103L
sV318.2
p1925
L2166L
sV286.6
p1926
L3706L
sVE988.3
p1927
L8206L
sV477
p1928
L6375L
sV658.03
p1929
L3608L
sV465.8
p1930
L2083L
sV656.93
p1931
L6051L
sV493.90
p1932
L244L
sV310.9
p1933
L2562L
sV736.75
p1934
L6510L
sV522.6
p1935
L5231L
sV742.9
p1936
L2167L
sVV69.1
p1937
L4694L
sV173.5
p1938
L8742L
sVE811.0
p1939
L6423L
sV839.08
p1940
L8780L
sVV57.3
p1941
L4295L
sVV28.4
p1942
L3180L
sVV85.22
p1943
L4034L
sV780.8
p1944
L1259L
sV338.18
p1945
L1496L
sV928.21
p1946
L6540L
sVE013.4
p1947
L8471L
sV736.70
p1948
L486L
sV275.2
p1949
L697L
sV537.1
p1950
L1673L
sV642.72
p1951
L8409L
sV632
p1952
L1405L
sV736.32
p1953
L8663L
sV562.02
p1954
L6760L
sV719.43
p1955
L79L
sV459.19
p1956
L7291L
sV039.1
p1957
L8037L
sV945.14
p1958
L7751L
sVV26.33
p1959
L3877L
sVV85.35
p1960
L1009L
sV219.1
p1961
L5207L
sV365.13
p1962
L7004L
sVE980.5
p1963
L2539L
sV250.12
p1964
L691L
sV198.6
p1965
L3742L
sVE816.9
p1966
L5034L
sVV67.59
p1967
L1241L
sV550.91
p1968
L2186L
sV720.9
p1969
L4722L
sV999.59
p1970
L4276L
sVV45.75
p1971
L1897L
sV915.5
p1972
L7378L
sV530.19
p1973
L1172L
sV054.9
p1974
L733L
sVV19.11
p1975
L6926L
sV318.00
p1976
L7679L
sV388.70
p1977
L567L
sV806.9
p1978
L7387L
sV852.02
p1979
L5745L
sV862.22
p1980
L8261L
sV410.42
p1981
L3826L
sV869.0
p1982
L1830L
sV426.11
p1983
L2044L
sV140.9
p1984
L7857L
sV682.2
p1985
L1531L
sV537.89
p1986
L2006L
sV357.89
p1987
L6884L
sV666.24
p1988
L3088L
sV745.19
p1989
L7209L
sV590.10
p1990
L406L
sV333.99
p1991
L3266L
sV345.40
p1992
L2403L
sV730.92
p1993
L7482L
sV736.89
p1994
L3380L
sV912.0
p1995
L3999L
sVV45.86
p1996
L1748L
sV339.44
p1997
L6714L
sV646.21
p1998
L6665L
sVE007.8
p1999
L6696L
sV512.82
p2000
L5081L
sVV04.1
p2001
L8491L
sV041.9
p2002
L823L
sVE968.7
p2003
L5158L
sV759.89
p2004
L2182L
sV729.1
p2005
L474L
sV307.6
p2006
L2873L
sV717.0
p2007
L7090L
sVE938.4
p2008
L4876L
sVE850.8
p2009
L7767L
sV788.4
p2010
L7859L
sV263.9
p2011
L539L
sV760.70
p2012
L8204L
sV197.4
p2013
L6152L
sV755.50
p2014
L8383L
sV333.1
p2015
L483L
sV358.00
p2016
L4353L
sV305.61
p2017
L1389L
sVE894
p2018
L3028L
sVE899
p2019
L954L
sV995.20
p2020
L1841L
sV624.9
p2021
L2699L
sV917.2
p2022
L2333L
sV967.0
p2023
L6432L
sV424.90
p2024
L266L
sV413.0
p2025
L7870L
sV305.60
p2026
L399L
sV946.2
p2027
L949L
sV410.30
p2028
L8286L
sV327.09
p2029
L5118L
sV666.14
p2030
L5474L
sV477.9
p2031
L268L
sV317.0
p2032
L5802L
sV314
p2033
L8952L
sV980.9
p2034
L6147L
sV648.44
p2035
L2263L
sV386.40
p2036
L8909L
sV227.4
p2037
L8307L
sV112.0
p2038
L1012L
sVV72.41
p2039
L568L
sV943.09
p2040
L7350L
sV443.22
p2041
L7177L
sV618.5
p2042
L5509L
sVV45.73
p2043
L1185L
sV242.40
p2044
L6383L
sV137.0
p2045
L7523L
sV458.0
p2046
L2663L
sV852.09
p2047
L8479L
sV293.84
p2048
L1975L
sV718.57
p2049
L5996L
sV663.00
p2050
L8139L
sV516.5
p2051
L6530L
sV737.10
p2052
L1960L
sV614.3
p2053
L370L
sV837.0
p2054
L3983L
sV802.1
p2055
L6264L
sV979.0
p2056
L7189L
sVV28.82
p2057
L3189L
sV783.2
p2058
L8659L
sVE013.5
p2059
L2242L
sV017.30
p2060
L8174L
sVV65.40
p2061
L356L
sV464.10
p2062
L3755L
sV944.27
p2063
L4805L
sV593.4
p2064
L670L
sVV79.8
p2065
L2893L
sV410.01
p2066
L5784L
sV307.7
p2067
L5734L
sVV72.4
p2068
L6888L
sV521.12
p2069
L6736L
sVE927.9
p2070
L630L
sVE822.8
p2071
L7347L
sV250.43
p2072
L2640L
sV153.3
p2073
L855L
sV808.42
p2074
L7875L
sV865.03
p2075
L7365L
sV040.0
p2076
L5023L
sVV19.4
p2077
L7080L
sVV23.41
p2078
L771L
sV041.84
p2079
L4560L
sV891.1
p2080
L1387L
sV370.23
p2081
L8401L
sV958.91
p2082
L6813L
sV567.82
p2083
L7455L
sV809.0
p2084
L7060L
sVV25.01
p2085
L749L
sV629.9
p2086
L1714L
sV718.49
p2087
L1728L
sV063.8
p2088
L7731L
sV446.29
p2089
L5588L
sV783.3
p2090
L2416L
sV200.20
p2091
L6824L
sVE919.7
p2092
L8070L
sV943.05
p2093
L7585L
sV300.22
p2094
L4025L
sV799.1
p2095
L127L
sV385.10
p2096
L4611L
sV533.90
p2097
L454L
sV902.20
p2098
L8923L
sVV49.76
p2099
L1887L
sV371.50
p2100
L3557L
sV707.19
p2101
L1420L
sV719.52
p2102
L4290L
sV649.31
p2103
L2344L
sV455.2
p2104
L4286L
sV332.0
p2105
L1740L
sV433.81
p2106
L7538L
sV787.4
p2107
L4664L
sV845.02
p2108
L1563L
sV414.01
p2109
L1024L
sVE811.1
p2110
L5162L
sV308.2
p2111
L4185L
sV386.19
p2112
L5639L
sV643.10
p2113
L7997L
sV675.24
p2114
L8570L
sV693.9
p2115
L8590L
sV335.8
p2116
L8233L
sV574.21
p2117
L4796L
sV770.82
p2118
L8388L
sV752.0
p2119
L4632L
sV715.18
p2120
L2371L
sV362.66
p2121
L7530L
sV552.8
p2122
L5455L
sV212.5
p2123
L6565L
sV327.40
p2124
L6980L
sV989.7
p2125
L4956L
sV812.30
p2126
L7344L
sV459.32
p2127
L4384L
sV289.1
p2128
L3726L
sV718.95
p2129
L4555L
sVV58.31
p2130
L326L
sV710.1
p2131
L3457L
sV624.6
p2132
L5254L
sVV90.81
p2133
L3711L
sV520.7
p2134
L6500L
sV426.4
p2135
L1836L
sV453.1
p2136
L8453L
sV747.22
p2137
L6365L
sVV61.04
p2138
L4029L
sV525.51
p2139
L7343L
sV799.4
p2140
L203L
sV795.03
p2141
L590L
sV304.23
p2142
L2974L
sV994.1
p2143
L6266L
sV574.90
p2144
L2571L
sV890.2
p2145
L5787L
sVV44.0
p2146
L124L
sV513.1
p2147
L8992L
sVV25.42
p2148
L573L
sV747.60
p2149
L5520L
sVE941.0
p2150
L8415L
sV801.20
p2151
L5373L
sV719.65
p2152
L3668L
sV564.00
p2153
L368L
sV727.64
p2154
L7768L
sV279.9
p2155
L683L
sV296.82
p2156
L4227L
sV373.32
p2157
L4748L
sV386.10
p2158
L2720L
sV956.0
p2159
L6697L
sVV56.0
p2160
L2056L
sVE878.3
p2161
L3520L
sV794.30
p2162
L1208L
sV208.92
p2163
L341L
sV924.5
p2164
L72L
sV716.64
p2165
L3048L
sV185
p2166
L1845L
sV733.91
p2167
L6583L
sV132.1
p2168
L7230L
sV730.12
p2169
L6111L
sVE014.9
p2170
L8096L
sV669.23
p2171
L2092L
sV301.7
p2172
L3005L
sV008.00
p2173
L7865L
sV327.49
p2174
L4898L
sV643.81
p2175
L6131L
sV333.91
p2176
L7884L
sV372.33
p2177
L4572L
sV795.00
p2178
L2145L
sVE944.3
p2179
L5581L
sVV73.81
p2180
L1363L
sV943.03
p2181
L8714L
sVE935.0
p2182
L8919L
sV200.63
p2183
L7196L
sV861.00
p2184
L6427L
sV780.63
p2185
L6880L
sV524.12
p2186
L6520L
sV381.89
p2187
L3678L
sV366.22
p2188
L3392L
sV649.03
p2189
L581L
sV423.0
p2190
L8623L
sV425.3
p2191
L4539L
sV686.9
p2192
L533L
sV996.62
p2193
L824L
sVV59.3
p2194
L5442L
sV801.02
p2195
L8016L
sV673.21
p2196
L8440L
sV965.09
p2197
L984L
sV649.42
p2198
L5629L
sV271.0
p2199
L7462L
sV843.9
p2200
L634L
sV836.0
p2201
L981L
sV426.13
p2202
L1435L
sV716.47
p2203
L8494L
sV196.3
p2204
L4076L
sV291.2
p2205
L2280L
sV519.2
p2206
L6338L
sVV10.43
p2207
L2009L
sV836.2
p2208
L1498L
sV730.29
p2209
L5329L
sV766.2
p2210
L7741L
sV388.32
p2211
L6603L
sV736.00
p2212
L3474L
sV952.09
p2213
L7765L
sV302.74
p2214
L4190L
sV801.26
p2215
L6039L
sV578.1
p2216
L838L
sV429.1
p2217
L6954L
sV795.08
p2218
L5362L
sVE865.9
p2219
L6999L
sV815.13
p2220
L8638L
sVV76.42
p2221
L6566L
sV824.3
p2222
L7702L
sV614.0
p2223
L3349L
sV711.50
p2224
L5954L
sV309.1
p2225
L3333L
sV357.82
p2226
L4206L
sV552.20
p2227
L4045L
sV367.81
p2228
L8163L
sV873.20
p2229
L5092L
sV575.11
p2230
L2226L
sVE010.2
p2231
L6538L
sV567.9
p2232
L673L
sV321.4
p2233
L7433L
sV556.4
p2234
L6604L
sV715.33
p2235
L4075L
sV459.2
p2236
L2275L
sV488.1
p2237
L8856L
sV707.02
p2238
L5397L
sV852.29
p2239
L5606L
sV718.51
p2240
L5378L
sV296.21
p2241
L2604L
sV327.42
p2242
L8787L
sV780.03
p2243
L6553L
sV823.11
p2244
L7001L
sV079.4
p2245
L606L
sV098.89
p2246
L6301L
sV434.90
p2247
L1834L
sV315.35
p2248
L1471L
sV249.20
p2249
L1569L
sV910.9
p2250
L7459L
sVV12.41
p2251
L4031L
sV589.0
p2252
L5101L
sVE916
p2253
L2934L
sV284.1
p2254
L4574L
sV575.0
p2255
L3661L
sV971.3
p2256
L3947L
sV924.4
p2257
L3168L
sVV11.2
p2258
L8827L
sV634.82
p2259
L7935L
sV307.3
p2260
L5059L
sV380.4
p2261
L17L
sV305.22
p2262
L4288L
sV327.29
p2263
L4591L
sV368.45
p2264
L2889L
sV380.32
p2265
L7288L
sVV44.59
p2266
L6701L
sV132.9
p2267
L4219L
sV780.59
p2268
L3710L
sV791.3
p2269
L4940L
sV173.31
p2270
L1628L
sV372.75
p2271
L4223L
sV958.8
p2272
L1229L
sV307.1
p2273
L4466L
sV362.76
p2274
L3503L
sV038.40
p2275
L4658L
sV715.91
p2276
L1152L
sV633.80
p2277
L2308L
sV346.30
p2278
L6394L
sV654.11
p2279
L8086L
sV629.31
p2280
L6891L
sVV48.1
p2281
L5446L
sV818.1
p2282
L7842L
sV437.0
p2283
L2077L
sV564.9
p2284
L1063L
sVV10.01
p2285
L8650L
sVV18.59
p2286
L1582L
sV730.18
p2287
L1726L
sV360.9
p2288
L6827L
sV806.69
p2289
L8610L
sV193
p2290
L270L
sV440.30
p2291
L5814L
sV839.61
p2292
L8947L
sV909.1
p2293
L8380L
sV388.9
p2294
L1848L
sV438.12
p2295
L2473L
sVE935.4
p2296
L5248L
sV820.31
p2297
L3820L
sV942.05
p2298
L8686L
sV275.40
p2299
L3031L
sV719.58
p2300
L1155L
sVE850.5
p2301
L8941L
sVV73.89
p2302
L3852L
sV171.0
p2303
L7472L
sV249.91
p2304
L4348L
sV377.75
p2305
L3917L
sV360.21
p2306
L6079L
sV309.29
p2307
L5672L
sVV12.09
p2308
L1096L
sV727.3
p2309
L1058L
sVV76.9
p2310
L4878L
sV336.1
p2311
L4952L
sV779.84
p2312
L8082L
sV279.09
p2313
L6526L
sV754.30
p2314
L3587L
sV948.10
p2315
L7270L
sV238.0
p2316
L6493L
sV569.1
p2317
L1120L
sV852.26
p2318
L5372L
sV290.11
p2319
L6778L
sV540.0
p2320
L1620L
sV707.15
p2321
L328L
sV404.10
p2322
L5113L
sV970.8
p2323
L7831L
sV682.6
p2324
L752L
sV720.2
p2325
L2001L
sV941.09
p2326
L3029L
sV259.51
p2327
L7064L
sV234.8
p2328
L5407L
sV808.1
p2329
L5012L
sV870.1
p2330
L4929L
sVE934.8
p2331
L5819L
sV805.07
p2332
L5090L
sV301.0
p2333
L4156L
sV286.4
p2334
L5273L
sV315.09
p2335
L5003L
sV626.9
p2336
L2296L
sV637.32
p2337
L5235L
sV153.6
p2338
L4214L
sV851.06
p2339
L3299L
sV599.6
p2340
L6996L
sV784.43
p2341
L7802L
sV143.9
p2342
L7999L
sV723.5
p2343
L81L
sV305.50
p2344
L580L
sV658.83
p2345
L4041L
sV707.09
p2346
L1668L
sV922.0
p2347
L4975L
sVV72.6
p2348
L6567L
sV916.4
p2349
L3300L
sV564.7
p2350
L4398L
sV790.94
p2351
L5177L
sV273.0
p2352
L1686L
sV375.2
p2353
L8288L
sVE007.9
p2354
L4910L
sV800.25
p2355
L8756L
sV787.9
p2356
L7246L
sV370.52
p2357
L6746L
sV426.52
p2358
L5087L
sV003.1
p2359
L6456L
sV404.13
p2360
L5386L
sV717.3
p2361
L1859L
sVV46.12
p2362
L3483L
sVV55.1
p2363
L116L
sV380.12
p2364
L5638L
sV716.10
p2365
L2656L
sV724.8
p2366
L708L
sV305.92
p2367
L1439L
sV884.2
p2368
L7665L
sV122.3
p2369
L6083L
sV601.0
p2370
L3079L
sV711.91
p2371
L6087L
sVV03.2
p2372
L6302L
sV360.00
p2373
L2484L
sV374.04
p2374
L8801L
sV717.7
p2375
L988L
sV852.06
p2376
L7065L
sV368.42
p2377
L9006L
sV250.52
p2378
L1369L
sV192.9
p2379
L7972L
sVV58.81
p2380
L537L
sV535.20
p2381
L2515L
sV312.00
p2382
L2632L
sV528.3
p2383
L1342L
sV289.50
p2384
L3932L
sV228.09
p2385
L1301L
sV112.3
p2386
L1543L
sV523.41
p2387
L8731L
sV995.55
p2388
L2415L
sV397.0
p2389
L1290L
sV482.40
p2390
L5566L
sV942.01
p2391
L8485L
sV491.21
p2392
L205L
sV945.33
p2393
L8481L
sV423.3
p2394
L5741L
sV750.5
p2395
L6397L
sV724.70
p2396
L5729L
sV066.41
p2397
L3033L
sV245.8
p2398
L7564L
sV575.9
p2399
L1111L
sVE941.3
p2400
L5768L
sV305.33
p2401
L8359L
sV537.83
p2402
L5786L
sV756.54
p2403
L5215L
sV198.89
p2404
L2590L
sV333.71
p2405
L3949L
sV995.59
p2406
L8414L
sV727.63
p2407
L4458L
sVE939.6
p2408
L8847L
sV873.8
p2409
L3367L
sV813.04
p2410
L4959L
sV366.9
p2411
L1075L
sV370.61
p2412
L4271L
sV344.30
p2413
L2741L
sV279.3
p2414
L3542L
sV873.49
p2415
L5293L
sV296.46
p2416
L3561L
sV296.35
p2417
L4093L
sV173.91
p2418
L3387L
sV346.52
p2419
L8071L
sV733.97
p2420
L5585L
sVV21.1
p2421
L3920L
sV752.40
p2422
L8090L
sV993.0
p2423
L6605L
sV004.9
p2424
L1659L
sV732.3
p2425
L5522L
sV304.30
p2426
L743L
sV799
p2427
L2175L
sV922.33
p2428
L5161L
sV908.5
p2429
L7194L
sV941.35
p2430
L3016L
sV944.03
p2431
L3954L
sV305.63
p2432
L3411L
sVE010.9
p2433
L6570L
sV358.2
p2434
L5692L
sV371.02
p2435
L6251L
sVV49.70
p2436
L2332L
sV560.30
p2437
L7241L
sV372.55
p2438
L8234L
sV199.1
p2439
L2598L
sV996.03
p2440
L7604L
sV541
p2441
L375L
sV478.70
p2442
L8326L
sVV02.59
p2443
L6608L
sV518.89
p2444
L121L
sV802.21
p2445
L5665L
sV762.7
p2446
L8083L
sV941.33
p2447
L3015L
sV751.69
p2448
L1258L
sVV68.01
p2449
L2758L
sV996.79
p2450
L1128L
sV652.50
p2451
L5099L
sV739.8
p2452
L3636L
sV300.01
p2453
L246L
sV780.01
p2454
L36L
sV339.20
p2455
L3912L
sV852.20
p2456
L2730L
sV719.46
p2457
L70L
sV676.00
p2458
L5772L
sV482.83
p2459
L1232L
sV720
p2460
L8061L
sV333.3
p2461
L8398L
sV831.03
p2462
L7993L
sV744.23
p2463
L3971L
sVE980.4
p2464
L1211L
sV943.30
p2465
L8516L
sV866.01
p2466
L4397L
sV045.20
p2467
L8252L
sVV65.9
p2468
L5063L
sV250.8
p2469
L6664L
sVE924.1
p2470
L6361L
sV195.0
p2471
L3717L
sVE855.5
p2472
L8604L
sV370.20
p2473
L4001L
sV588.89
p2474
L2660L
sVV44.9
p2475
L5037L
sV041.09
p2476
L3762L
sVV72.31
p2477
L478L
sV820.20
p2478
L1899L
sV312.81
p2479
L3220L
sV309.81
p2480
L258L
sV250.6
p2481
L7759L
sV972.6
p2482
L2983L
sVV76.49
p2483
L7016L
sVV12.5
p2484
L4675L
sV716.45
p2485
L6028L
sV447.72
p2486
L6581L
sVE917.5
p2487
L1505L
sV379.50
p2488
L3117L
sV420.0
p2489
L4323L
sV902.19
p2490
L8803L
sV641.10
p2491
L8574L
sV533.31
p2492
L7294L
sV344.42
p2493
L7916L
sV611.3
p2494
L1131L
sV070.6
p2495
L3867L
sV646.11
p2496
L7598L
sV802.0
p2497
L3360L
sV739.7
p2498
L6901L
sV602.9
p2499
L3548L
sV784.3
p2500
L48L
sV753.9
p2501
L4839L
sV045.21
p2502
L7705L
sVE987.0
p2503
L7574L
sV238.8
p2504
L3632L
sV593.81
p2505
L2829L
sV296.05
p2506
L3618L
sVV15.86
p2507
L7425L
sV352.3
p2508
L1966L
sVE000.9
p2509
L1949L
sV772.6
p2510
L8529L
sV863.45
p2511
L3517L
sV379.8
p2512
L6934L
sVV15.01
p2513
L2706L
sVE812.4
p2514
L8988L
sV813.45
p2515
L6575L
sVE976
p2516
L5968L
sV969.01
p2517
L7170L
sV276.2
p2518
L521L
sVE930.8
p2519
L3530L
sV508.1
p2520
L3232L
sVE865.8
p2521
L6441L
sV897.1
p2522
L4020L
sV942.20
p2523
L7024L
sV729.72
p2524
L3412L
sV963.2
p2525
L3403L
sV327.59
p2526
L6600L
sV339.11
p2527
L6280L
sV662.21
p2528
L8014L
sV596.7
p2529
L6981L
sV728.84
p2530
L3937L
sV290.9
p2531
L4590L
sV207.10
p2532
L8458L
sVE881.1
p2533
L8477L
sV963.3
p2534
L8945L
sV737.29
p2535
L6807L
sV470
p2536
L1306L
sV969.04
p2537
L8957L
sV941.08
p2538
L8523L
sVV85.45
p2539
L422L
sV518.83
p2540
L135L
sV213.4
p2541
L6480L
sV512.0
p2542
L4751L
sV342.00
p2543
L1886L
sVE987.9
p2544
L5524L
sV183.8
p2545
L8348L
sVE858.3
p2546
L3178L
sV041.89
p2547
L1741L
sV188.4
p2548
L6900L
sVV81.0
p2549
L572L
sV517.3
p2550
L8552L
sV944.01
p2551
L7088L
sV374.11
p2552
L6910L
sVE910.8
p2553
L6314L
sV590.11
p2554
L694L
sV008.47
p2555
L8586L
sV728.3
p2556
L2336L
sV733.22
p2557
L7364L
sV799.25
p2558
L9021L
sVV49.74
p2559
L7320L
sV101
p2560
L8421L
sV674.84
p2561
L5415L
sVE917.8
p2562
L3627L
sV790.8
p2563
L6856L
sV784.2
p2564
L508L
sV425.9
p2565
L3120L
sV052.9
p2566
L5135L
sV273.4
p2567
L8595L
sVV17.4
p2568
L8902L
sV570
p2569
L2816L
sV170.4
p2570
L6114L
sV621.31
p2571
L3955L
sV736.39
p2572
L4605L
sVV53.59
p2573
L5796L
sV747.42
p2574
L8786L
sV887.2
p2575
L7543L
sV362.73
p2576
L6737L
sV682.8
p2577
L740L
sV813.80
p2578
L3344L
sV173.69
p2579
L6943L
sV626.1
p2580
L1982L
sV965.02
p2581
L4729L
sV649.63
p2582
L2098L
sV843.8
p2583
L3383L
sV275.0
p2584
L5035L
sV706.1
p2585
L1948L
sV733.13
p2586
L1330L
sVV43.1
p2587
L1069L
sVV61.29
p2588
L7376L
sV209.61
p2589
L7223L
sVV85.32
p2590
L1554L
sV719.98
p2591
L1117L
sVE816.2
p2592
L1797L
sV009.1
p2593
L730L
sV743.49
p2594
L6791L
sV673.23
p2595
L5687L
sV760.5
p2596
L5172L
sV876.0
p2597
L4666L
sV872.10
p2598
L3157L
sV900.89
p2599
L8692L
sV610.1
p2600
L1125L
sVE960.0
p2601
L757L
sV991.4
p2602
L6313L
sV905.6
p2603
L4588L
sV174.5
p2604
L4922L
sV792.2
p2605
L7475L
sV249.01
p2606
L4535L
sV757.33
p2607
L5491L
sVE878.6
p2608
L4559L
sVV15.3
p2609
L181L
sVV12.55
p2610
L1676L
sV455.8
p2611
L4200L
sV652.23
p2612
L1761L
sV374.33
p2613
L5675L
sV952.17
p2614
L5679L
sV736.09
p2615
L7924L
sVV68.9
p2616
L69L
sV865.04
p2617
L7326L
sVV19.0
p2618
L7321L
sV807.05
p2619
L821L
sVV18.51
p2620
L4504L
sV656.73
p2621
L5475L
sV765.25
p2622
L8133L
sV706.2
p2623
L1562L
sV840.5
p2624
L4762L
sV750.19
p2625
L7844L
sV180.0
p2626
L7476L
sV427.60
p2627
L2543L
sV729.89
p2628
L295L
sV821.29
p2629
L3729L
sV656.10
p2630
L9016L
sV123.9
p2631
L3130L
sV565.0
p2632
L2729L
sV647.23
p2633
L4740L
sV378.71
p2634
L7035L
sV733.11
p2635
L5384L
sV258.9
p2636
L2128L
sV705.89
p2637
L7880L
sV643.01
p2638
L6773L
sV538
p2639
L7642L
sV610.4
p2640
L5975L
sV666.32
p2641
L7648L
sV295.91
p2642
L5564L
sV170.8
p2643
L7245L
sV070.54
p2644
L197L
sV410.40
p2645
L2811L
sV362.35
p2646
L4703L
sV237.1
p2647
L7899L
sV410.70
p2648
L1476L
sV949.3
p2649
L6991L
sV811.00
p2650
L813L
sV366.13
p2651
L6144L
sV716.29
p2652
L6976L
sV236.91
p2653
L3491L
sV305.02
p2654
L2133L
sV162.2
p2655
L7693L
sV944.21
p2656
L7409L
sV854.00
p2657
L52L
sV438.53
p2658
L5952L
sV556.9
p2659
L5470L
sV633.90
p2660
L2309L
sV077.2
p2661
L7536L
sV237.9
p2662
L8188L
sV379.57
p2663
L8400L
sV738.4
p2664
L1187L
sV727.06
p2665
L1035L
sV821.30
p2666
L4657L
sV873.33
p2667
L8968L
sV363.06
p2668
L8926L
sV628.2
p2669
L5701L
sV941.20
p2670
L3025L
sVE988.9
p2671
L64L
sV719.15
p2672
L4943L
sV552.9
p2673
L4084L
sV327.25
p2674
L7380L
sV846.8
p2675
L7258L
sV380.15
p2676
L3296L
sV284.9
p2677
L4706L
sV173.41
p2678
L3526L
sV941.25
p2679
L3019L
sV756.2
p2680
L6765L
sV209.79
p2681
L3737L
sV853.09
p2682
L9011L
sV346.22
p2683
L8959L
sV3181
p2684
L6268L
sV219.9
p2685
L8487L
sV823.42
p2686
L2082L
sV173.90
p2687
L2679L
sV911.6
p2688
L2748L
sV646.84
p2689
L2262L
sVV53.4
p2690
L8768L
sVV12.71
p2691
L2157L
sV365.31
p2692
L8265L
sV743.31
p2693
L8709L
sV364.53
p2694
L6210L
sV531.71
p2695
L6138L
sV904.41
p2696
L6916L
sVV10.85
p2697
L3936L
sV380.10
p2698
L994L
sV378.31
p2699
L5365L
sV996.91
p2700
L1462L
sVV53.6
p2701
L165L
sV519.01
p2702
L5342L
sV555.9
p2703
L3179L
sVV21.0
p2704
L7976L
sV836.59
p2705
L8940L
sV646.50
p2706
L6685L
sV779.89
p2707
L8464L
sV377.01
p2708
L3970L
sV466.19
p2709
L3112L
sV996.1
p2710
L2059L
sV337.00
p2711
L2116L
sV338.19
p2712
L335L
sV216.7
p2713
L1750L
sV209.56
p2714
L8540L
sV906.8
p2715
L3958L
sV959.12
p2716
L812L
sV368.16
p2717
L1900L
sV733.19
p2718
L1589L
sV955.3
p2719
L3774L
sV836.1
p2720
L1924L
sV736.20
p2721
L4429L
sV426.10
p2722
L2542L
sVE950.4
p2723
L982L
sV789.51
p2724
L4163L
sV276.52
p2725
L153L
sV751.7
p2726
L5666L
sV873.61
p2727
L8395L
sV716.31
p2728
L3977L
sV285.0
p2729
L3899L
sV722.32
p2730
L1303L
sV376.44
p2731
L8243L
sV226
p2732
L4037L
sVE001.0
p2733
L3427L
sV204.90
p2734
L5433L
sV958.90
p2735
L2864L
sV600.00
p2736
L262L
sV288.9
p2737
L4236L
sV909.9
p2738
L3537L
sV705.21
p2739
L6304L
sV733.43
p2740
L6756L
sV572.3
p2741
L956L
sVV58.41
p2742
L1421L
sV874.8
p2743
L3213L
sV202.01
p2744
L7142L
sV518.84
p2745
L125L
sV300.21
p2746
L724L
sV131.02
p2747
L5614L
sV147.9
p2748
L5903L
sV786.39
p2749
L4314L
sV953.0
p2750
L4442L
sV953.4
p2751
L1779L
sV996.59
p2752
L2464L
sV285.8
p2753
L883L
sV160.8
p2754
L8751L
sVV85.34
p2755
L4701L
sV677
p2756
L5510L
sV296.23
p2757
L2768L
sV296.00
p2758
L2126L
sV865.13
p2759
L7324L
sV999.39
p2760
L5554L
sV618.09
p2761
L4216L
sV753.12
p2762
L2833L
sV564.6
p2763
L4989L
sV389.10
p2764
L1250L
sV746.81
p2765
L7777L
sVV77.91
p2766
L570L
sV790.1
p2767
L2431L
sV305.30
p2768
L5198L
sV327.53
p2769
L4261L
sV249.41
p2770
L2518L
sVV44.6
p2771
L151L
sV917.6
p2772
L2858L
sVE812.8
p2773
L3998L
sV789.67
p2774
L2776L
sV521.00
p2775
L1662L
sV442.83
p2776
L7402L
sV660.21
p2777
L8808L
sVE863.4
p2778
L8232L
sV364.21
p2779
L7312L
sV707.24
p2780
L137L
sV770.88
p2781
L5938L
sV861.22
p2782
L8935L
sV383.33
p2783
L8578L
sV473.8
p2784
L1697L
sV719.59
p2785
L3727L
sV743.53
p2786
L7670L
sV600.10
p2787
L4394L
sV379.29
p2788
L6979L
sV152.9
p2789
L7594L
sV728.86
p2790
L2723L
sV161.8
p2791
L7471L
sVV74.0
p2792
L8844L
sV523.23
p2793
L6598L
sV582.81
p2794
L2017L
sV816.02
p2795
L3169L
sV779.3
p2796
L8724L
sV454.0
p2797
L491L
sV362.13
p2798
L3976L
sV646.81
p2799
L4744L
sV780.97
p2800
L27L
sV184.4
p2801
L4133L
sV344.04
p2802
L2691L
sV176.0
p2803
L5710L
sV780.50
p2804
L1157L
sVE849.5
p2805
L1796L
sV153.8
p2806
L6660L
sV277.89
p2807
L4828L
sV256.0
p2808
L7447L
sVV06.9
p2809
L3539L
sV618.00
p2810
L1618L
sV351.1
p2811
L8646L
sV709.2
p2812
L1347L
sVV62.1
p2813
L7228L
sV233.2
p2814
L8296L
sV862.0
p2815
L6245L
sV941.00
p2816
L7584L
sVE814.3
p2817
L7056L
sV334.4
p2818
L5039L
sV363.33
p2819
L8904L
sV840.6
p2820
L2235L
sV904.7
p2821
L7039L
sV333.89
p2822
L6508L
sV754.81
p2823
L4532L
sVV10.69
p2824
L8637L
sV171.2
p2825
L6482L
sV304.83
p2826
L5149L
sV388.01
p2827
L3880L
sV758.39
p2828
L3199L
sVV26.89
p2829
L7991L
sV716.87
p2830
L6125L
sVV25.49
p2831
L2556L
sV421.1
p2832
L5976L
sV230.5
p2833
L7796L
sV523.31
p2834
L420L
sV404.01
p2835
L4906L
sV270.3
p2836
L7412L
sV338.12
p2837
L6247L
sV521.03
p2838
L4491L
sV270.9
p2839
L5239L
sV623.4
p2840
L5511L
sV378.24
p2841
L3203L
sV647.13
p2842
L8282L
sVE914
p2843
L2487L
sVE924.2
p2844
L6591L
sV788.65
p2845
L3455L
sV317
p2846
L1694L
sVE878.4
p2847
L2497L
sV995.53
p2848
L6226L
sV386.9
p2849
L5115L
sVE885.2
p2850
L4488L
sV368.30
p2851
L7660L
sV159.9
p2852
L4688L
sVE013.1
p2853
L4992L
sV789.30
p2854
L1843L
sV660.31
p2855
L2257L
sV363.35
p2856
L8905L
sV756.17
p2857
L4238L
sV250.33
p2858
L5937L
sV808.41
p2859
L4013L
sV707.06
p2860
L4302L
sVV51.0
p2861
L3194L
sV523.33
p2862
L3051L
sV312.39
p2863
L1213L
sV359.5
p2864
L8159L
sV824.2
p2865
L1360L
sV696.0
p2866
L3898L
sV309.8
p2867
L7632L
sVE905.5
p2868
L6733L
sV731.3
p2869
L6124L
sV718.00
p2870
L8097L
sV511.9
p2871
L56L
sV919.8
p2872
L4260L
sV381.81
p2873
L582L
sV373.02
p2874
L4997L
sV354.3
p2875
L5241L
sV812.20
p2876
L1778L
sV728.9
p2877
L1186L
sV372.89
p2878
L7372L
sV814.18
p2879
L9024L
sV707.10
p2880
L1765L
sV945.01
p2881
L7485L
sV288.66
p2882
L5752L
sV239.1
p2883
L3720L
sV341.22
p2884
L6656L
sV715.13
p2885
L361L
sV205.01
p2886
L6248L
sV272.5
p2887
L2219L
sV708.1
p2888
L3241L
sVV45.72
p2889
L2218L
sVE938.0
p2890
L6421L
sVV53.90
p2891
L5106L
sV202.90
p2892
L3579L
sV435.2
p2893
L5537L
sV360.53
p2894
L8964L
sV204.11
p2895
L3770L
sV713.6
p2896
L4000L
sV153.9
p2897
L267L
sVV61.8
p2898
L2635L
sV250.73
p2899
L2329L
sVV72.63
p2900
L576L
sV521.9
p2901
L5611L
sVV61.21
p2902
L4957L
sV905.2
p2903
L2530L
sVV87.02
p2904
L4831L
sV945.03
p2905
L8068L
sV213.9
p2906
L5219L
sVE918
p2907
L3336L
sV786.30
p2908
L218L
sV529.3
p2909
L4096L
sV308.3
p2910
L395L
sVV49.73
p2911
L1769L
sV110.1
p2912
L227L
sV438.22
p2913
L1073L
sV285.22
p2914
L3801L
sV304.81
p2915
L353L
sV995.60
p2916
L3847L
sV290.00
p2917
L8687L
sV357.5
p2918
L5229L
sV536.1
p2919
L5557L
sV924.10
p2920
L1690L
sV596.2
p2921
L1744L
sV162.8
p2922
L6560L
sV625.5
p2923
L3003L
sV520.9
p2924
L4705L
sV812.19
p2925
L8567L
sVV81.1
p2926
L5917L
sV761.0
p2927
L9017L
sV560.1
p2928
L2202L
sV294.21
p2929
L516L
sV361.81
p2930
L2708L
sV301.20
p2931
L7374L
sV916.1
p2932
L2353L
sVV69.2
p2933
L1753L
sV789.09
p2934
L373L
sV844.0
p2935
L3572L
sV365.60
p2936
L2061L
sVV15.84
p2937
L6882L
sV573.8
p2938
L531L
sV200.02
p2939
L5967L
sV657.03
p2940
L782L
sV717.89
p2941
L3065L
sV097.1
p2942
L3188L
sV642.04
p2943
L2261L
sV371.03
p2944
L4585L
sVV72.8
p2945
L8121L
sV114.4
p2946
L5487L
sVV78.1
p2947
L2156L
sVV23.83
p2948
L6713L
sV473.1
p2949
L4224L
sV966.3
p2950
L4607L
sV295.20
p2951
L4640L
sV743.45
p2952
L8565L
sV599.81
p2953
L4215L
sV279.8
p2954
L5426L
sV779.7
p2955
L6099L
sV216.3
p2956
L4179L
sV365.89
p2957
L4684L
sV379.39
p2958
L2608L
sV480.9
p2959
L2005L
sV230.3
p2960
L5038L
sV655.71
p2961
L6052L
sV781.91
p2962
L2477L
sV786.59
p2963
L61L
sV617.5
p2964
L5409L
sV200.70
p2965
L7789L
sV365.73
p2966
L497L
sV802.9
p2967
L9023L
sV078.19
p2968
L2514L
sV331.5
p2969
L4128L
sV723.3
p2970
L4298L
sVV25.2
p2971
L619L
sV363.40
p2972
L7182L
sVE814.7
p2973
L4438L
sV369.60
p2974
L1729L
sV756.16
p2975
L7023L
sV525.69
p2976
L6878L
sV348.9
p2977
L1608L
sV941.29
p2978
L3020L
sV216.5
p2979
L1794L
sVE922.9
p2980
L6326L
sV519.00
p2981
L4388L
sV197.0
p2982
L929L
sV369.70
p2983
L3119L
sV823.82
p2984
L2652L
sV648.10
p2985
L6299L
sV250.42
p2986
L689L
sVV85.30
p2987
L2151L
sV058.89
p2988
L4783L
sV369.8
p2989
L2611L
sV727.2
p2990
L914L
sV801.09
p2991
L7764L
sV719.19
p2992
L5247L
sVV45.88
p2993
L4608L
sVE900.9
p2994
L6045L
sV377.10
p2995
L2527L
sV655.11
p2996
L8263L
sV011.90
p2997
L2070L
sV753.11
p2998
L4962L
sV839.07
p2999
L7278L
sV052.0
p3000
L7730L
sV362.41
p3001
L7292L
sV245.2
p3002
L2575L
sV588.81
p3003
L663L
sV562.11
p3004
L502L
sVE007.5
p3005
L2785L
sV727.09
p3006
L2650L
sV590.80
p3007
L549L
sV641.03
p3008
L4786L
sV842.12
p3009
L2957L
sV787.20
p3010
L107L
sV362.75
p3011
L8259L
sV374.14
p3012
L6337L
sV238.74
p3013
L7512L
sV252.00
p3014
L472L
sVE939.7
p3015
L8555L
sV642.03
p3016
L3287L
sV847.4
p3017
L4032L
sVV46.11
p3018
L105L
sV371.14
p3019
L8436L
sV293.83
p3020
L524L
sV654.03
p3021
L8558L
sVV16.41
p3022
L4948L
sV307.47
p3023
L2359L
sV868.00
p3024
L4015L
sV385.9
p3025
L5259L
sV159.0
p3026
L4837L
sV315.7
p3027
L7268L
sV722.82
p3028
L3924L
sVV17.2
p3029
L5799L
sV669.91
p3030
L7248L
sV836.3
p3031
L2682L
sV944.02
p3032
L9030L
sV304.40
p3033
L2482L
sV735.5
p3034
L4885L
sV523.8
p3035
L4540L
sV493.02
p3036
L900L
sV182.8
p3037
L8347L
sVE000.0
p3038
L5398L
sV661.01
p3039
L2254L
sV728.81
p3040
L7400L
sVE860.8
p3041
L4932L
sV646.73
p3042
L6157L
sV346.11
p3043
L2711L
sVV13.51
p3044
L4978L
sVE905.7
p3045
L8407L
sV204.91
p3046
L5436L
sVV13.01
p3047
L559L
sVE980.0
p3048
L2572L
sV300.11
p3049
L1970L
sV516.32
p3050
L6725L
sVV42.6
p3051
L6831L
sV805.8
p3052
L3318L
sV664.01
p3053
L2342L
sV367.0
p3054
L860L
sV996.61
p3055
L1452L
sV996.09
p3056
L2540L
sV834.01
p3057
L4457L
sV250.21
p3058
L6732L
sV379.09
p3059
L7904L
sV813.53
p3060
L8985L
sV814.10
p3061
L5527L
sV648.02
p3062
L9003L
sV065.4
p3063
L5323L
sV331.2
p3064
L2797L
sV305.9
p3065
L7707L
sV322.0
p3066
L7659L
sV434.11
p3067
L5828L
sVV81.6
p3068
L196L
sV801.10
p3069
L5313L
sV607.82
p3070
L7438L
sV596.52
p3071
L3105L
sV309.23
p3072
L8077L
sV999.99
p3073
L2719L
sV668.94
p3074
L8722L
sV250.70
p3075
L1371L
sV686.00
p3076
L5330L
sV284.11
p3077
L3642L
sV375.43
p3078
L8996L
sV863.56
p3079
L4012L
sV211.4
p3080
L1915L
sV042
p3081
L1550L
sV211.5
p3082
L5792L
sVV10.04
p3083
L3346L
sV790.29
p3084
L261L
sV088.9
p3085
L7381L
sV140.4
p3086
L8821L
sV053.19
p3087
L1019L
sV839.42
p3088
L6461L
sV787.23
p3089
L4175L
sV530.84
p3090
L4589L
sV716.89
p3091
L8280L
sV375.55
p3092
L5190L
sVV72.84
p3093
L575L
sV800.12
p3094
L4724L
sV444.09
p3095
L6414L
sV807.08
p3096
L5306L
sV726.31
p3097
L3620L
sV295.31
p3098
L6929L
sV780.9
p3099
L1091L
sV648.73
p3100
L1525L
sV756.4
p3101
L7232L
sV661.20
p3102
L6370L
sV659.61
p3103
L4822L
sV795.79
p3104
L303L
sV438.82
p3105
L119L
sV447.3
p3106
L3554L
sVV15.59
p3107
L2153L
sV927.21
p3108
L1490L
sV366.03
p3109
L2354L
sVE924.9
p3110
L7190L
sV327.30
p3111
L8073L
sVV10.42
p3112
L2621L
sV718.75
p3113
L5713L
sV625.8
p3114
L2998L
sV655.83
p3115
L1800L
sV459.89
p3116
L1235L
sV423.9
p3117
L1609L
sV708.5
p3118
L4097L
sV617.9
p3119
L3310L
sV575.12
p3120
L6723L
sV594.1
p3121
L543L
sV343.0
p3122
L3580L
sVV57.81
p3123
L7437L
sV331.19
p3124
L8563L
sV784.49
p3125
L3184L
sVV03.81
p3126
L4569L
sV998.09
p3127
L6035L
sVV49.83
p3128
L3810L
sV039.0
p3129
L1492L
sV716.56
p3130
L465L
sVE819.7
p3131
L4437L
sV531.60
p3132
L7377L
sVE883.9
p3133
L3928L
sV457.8
p3134
L657L
sVV72.5
p3135
L692L
sV567.38
p3136
L2774L
sV201.91
p3137
L4337L
sV787.63
p3138
L5740L
sV221.1
p3139
L8547L
sV362.18
p3140
L8888L
sV362.52
p3141
L970L
sV873.50
p3142
L7113L
sV969.79
p3143
L7005L
sVV66.4
p3144
L5580L
sV716.97
p3145
L2304L
sV943.20
p3146
L6741L
sV711.40
p3147
L7054L
sV364.73
p3148
L7951L
sV209.17
p3149
L5029L
sV649.32
p3150
L8794L
sV715.96
p3151
L11L
sV745.9
p3152
L8128L
sV403.00
p3153
L2549L
sV973.0
p3154
L2826L
sV250.62
p3155
L1368L
sVV75.1
p3156
L7553L
sV718.04
p3157
L8609L
sVV72.69
p3158
L367L
sV569.71
p3159
L6379L
sV427.9
p3160
L188L
sVV89.03
p3161
L6332L
sV451.84
p3162
L6794L
sV659.11
p3163
L4234L
sV048
p3164
L7340L
sV279.10
p3165
L7139L
sV582.9
p3166
L4663L
sV344.41
p3167
L7240L
sV190.8
p3168
L7900L
sV805.5
p3169
L4004L
sV191.5
p3170
L8242L
sVV63.2
p3171
L4672L
sV934.0
p3172
L7424L
sVV53.1
p3173
L2987L
sV709.09
p3174
L3192L
sV795.10
p3175
L6869L
sV719.26
p3176
L6800L
sV732.9
p3177
L2651L
sV099.50
p3178
L5471L
sVV72.86
p3179
L4842L
sV094.3
p3180
L7549L
sV173.02
p3181
L7906L
sV995.7
p3182
L3508L
sV955.7
p3183
L6838L
sV289.89
p3184
L1483L
sV345.11
p3185
L2406L
sV707.07
p3186
L1667L
sVV49.72
p3187
L2642L
sV696.2
p3188
L7013L
sV914.8
p3189
L4254L
sV624.8
p3190
L2725L
sV952.00
p3191
L2692L
sV098.0
p3192
L3187L
sV788.31
p3193
L760L
sV824.8
p3194
L1947L
sV276.0
p3195
L1288L
sV941.28
p3196
L8696L
sV380.11
p3197
L6753L
sV786.01
p3198
L2435L
sV913.1
p3199
L6008L
sV288.03
p3200
L2942L
sV361.05
p3201
L6617L
sV790.01
p3202
L3371L
sV369.74
p3203
L4460L
sVE821.2
p3204
L8276L
sV610.0
p3205
L2624L
sV736.9
p3206
L6908L
sV655.93
p3207
L1803L
sV196.9
p3208
L3746L
sV343.9
p3209
L2396L
sVV22.1
p3210
L589L
sV805.06
p3211
L6535L
sV378.23
p3212
L5002L
sV371.82
p3213
L4576L
sV307.49
p3214
L5311L
sVV58.73
p3215
L4536L
sV526.4
p3216
L3388L
sV996.78
p3217
L1719L
sV724.01
p3218
L4375L
sV244.3
p3219
L1625L
sV362.29
p3220
L4309L
sV367.1
p3221
L77L
sV667.00
p3222
L8737L
sV680.0
p3223
L5103L
sV573.4
p3224
L7627L
sV438.85
p3225
L2927L
sV727.60
p3226
L1139L
sV646.93
p3227
L1414L
sVV50.49
p3228
L6993L
sV618.01
p3229
L2289L
sV285.29
p3230
L1354L
sVE019.0
p3231
L7639L
sV572.0
p3232
L2815L
sV808.43
p3233
L5011L
sV571.2
p3234
L1234L
sV560.31
p3235
L5964L
sV295.04
p3236
L5124L
sV868.14
p3237
L4007L
sV727.50
p3238
L6495L
sV620.9
p3239
L4149L
sVE864.0
p3240
L7137L
sVV67.4
p3241
L1774L
sV053.10
p3242
L3456L
sV719.02
p3243
L3164L
sV862.8
p3244
L7654L
sV998.6
p3245
L3689L
sV052.7
p3246
L6428L
sVE906.9
p3247
L7782L
sV642.23
p3248
L7155L
sV441.4
p3249
L1651L
sV223.0
p3250
L3994L
sV759.0
p3251
L7106L
sV200.00
p3252
L4176L
sV581.9
p3253
L2678L
sV278.8
p3254
L4143L
sV366.15
p3255
L1898L
sV999.82
p3256
L7027L
sV995.64
p3257
L7236L
sVE980.3
p3258
L704L
sVV44.8
p3259
L5906L
sV200.71
p3260
L7222L
sV954.9
p3261
L9009L
sVE818.0
p3262
L3603L
sV823.40
p3263
L5105L
sV716.30
p3264
L7542L
sVV15.85
p3265
L2277L
sV659.51
p3266
L6194L
sVV28.89
p3267
L594L
sV200.21
p3268
L8649L
sV807.07
p3269
L6275L
sV719.41
p3270
L256L
sV363.52
p3271
L7891L
sV791.2
p3272
L3073L
sV437.2
p3273
L6032L
sV156.2
p3274
L8022L
sV294.9
p3275
L825L
sVV79.98
p3276
L8145L
sV969.1
p3277
L7858L
sV362.37
p3278
L3295L
sV952.05
p3279
L5766L
sV647.63
p3280
L603L
sV301.51
p3281
L1339L
sV747.82
p3282
L4951L
sV395.9
p3283
L5946L
sV735.9
p3284
L3037L
sV289.9
p3285
L4010L
sVV85.39
p3286
L2822L
sV805.03
p3287
L6459L
sVV87.49
p3288
L4622L
sV643.11
p3289
L8870L
sV478.21
p3290
L7140L
sVV47.4
p3291
L2694L
sV170.1
p3292
L4514L
sV363.43
p3293
L8914L
sV426.51
p3294
L2573L
sV812.44
p3295
L8426L
sV783.42
p3296
L3206L
sV210.9
p3297
L8284L
sV227.1
p3298
L4036L
sV716.11
p3299
L3693L
sV533.00
p3300
L6400L
sV879.7
p3301
L5641L
sV815.09
p3302
L6768L
sV943.01
p3303
L4887L
sV996.04
p3304
L2901L
sV195.5
p3305
L5402L
sV934.1
p3306
L8293L
sV742.0
p3307
L8066L
sV153.2
p3308
L4755L
sV425.8
p3309
L4530L
sV302.52
p3310
L7806L
sV573.2
p3311
L8050L
sVE966
p3312
L3370L
sV694.4
p3313
L5051L
sVE884.5
p3314
L5391L
sV345.2
p3315
L6060L
sV935.0
p3316
L6709L
sV320.89
p3317
L3771L
sV327.12
p3318
L8819L
sV727.66
p3319
L8530L
sV454.8
p3320
L489L
sV267
p3321
L6635L
sV444.01
p3322
L8943L
sV355.5
p3323
L3531L
sV277.00
p3324
L2399L
sV995.62
p3325
L6473L
sV737.19
p3326
L2674L
sV807.00
p3327
L59L
sV981
p3328
L7169L
sV525.62
p3329
L8986L
sV200.18
p3330
L6989L
sVV75.8
p3331
L4367L
sVE015.2
p3332
L4368L
sV975.8
p3333
L7775L
sV417.8
p3334
L2189L
sV215.5
p3335
L6455L
sV350.2
p3336
L1365L
sV296.61
p3337
L1665L
sV977.8
p3338
L1204L
sV118
p3339
L5396L
sV366.33
p3340
L4985L
sV342.12
p3341
L6475L
sV307.48
p3342
L6195L
sVV45.84
p3343
L5603L
sV360.20
p3344
L6990L
sV249.90
p3345
L4541L
sV612.1
p3346
L5871L
sV345.51
p3347
L4481L
sV918.0
p3348
L2485L
sV718.28
p3349
L7955L
sV277.01
p3350
L7411L
sV733.7
p3351
L7848L
sV310.81
p3352
L8130L
sV718.85
p3353
L5749L
sV945.40
p3354
L8366L
sV070.44
p3355
L2890L
sV057.8
p3356
L7996L
sV873.0
p3357
L92L
sVV49.89
p3358
L1165L
sV785.51
p3359
L2794L
sV711.49
p3360
L8597L
sV919.2
p3361
L4700L
sV853.06
p3362
L6762L
sV719.06
p3363
L10L
sV879.2
p3364
L2107L
sV719.82
p3365
L1335L
sVV81.4
p3366
L2154L
sV821.10
p3367
L5573L
sVV77.5
p3368
L7474L
sV771.4
p3369
L5368L
sV304.71
p3370
L3773L
sV273.3
p3371
L5243L
sVV67.9
p3372
L1191L
sV173.0
p3373
L8728L
sV427.5
p3374
L109L
sV372.20
p3375
L3583L
sV343.8
p3376
L2899L
sV718.83
p3377
L4108L
sV216.0
p3378
L2876L
sV202.85
p3379
L3578L
sV694.8
p3380
L6409L
sV873.60
p3381
L4250L
sV410.20
p3382
L7122L
sV729.82
p3383
L177L
sV284.19
p3384
L2809L
sV375.32
p3385
L8386L
sV173.81
p3386
L7335L
sV216.1
p3387
L1048L
sV388.02
p3388
L7535L
sV795.82
p3389
L7836L
sV110.6
p3390
L8005L
sV070.32
p3391
L2839L
sV368.11
p3392
L6780L
sVV16.42
p3393
L7355L
sV379.32
p3394
L2609L
sV416.0
p3395
L2419L
sVV43.4
p3396
L5414L
sV209.23
p3397
L7297L
sV176.9
p3398
L5404L
sV643.83
p3399
L4233L
sV209.72
p3400
L3740L
sVV12.1
p3401
L2789L
sV323.01
p3402
L7077L
sV711.51
p3403
L6291L
sVV07.31
p3404
L3590L
sV429.9
p3405
L159L
sV368.60
p3406
L6159L
sV347.10
p3407
L4869L
sVE956
p3408
L799L
sV573.3
p3409
L1121L
sV648.11
p3410
L5156L
sVV90.11
p3411
L6985L
sV980.8
p3412
L4933L
sV342.80
p3413
L3418L
sV747.40
p3414
L8274L
sV531.91
p3415
L5866L
sV482.89
p3416
L3793L
sV585
p3417
L6153L
sV257.9
p3418
L3521L
sV778.6
p3419
L7677L
sV194.1
p3420
L7633L
sV275.01
p3421
L3987L
sV556.6
p3422
L5676L
sV567.21
p3423
L6139L
sVE868.1
p3424
L8858L
sV282.5
p3425
L6402L
sV274.89
p3426
L6953L
sV585.1
p3427
L2201L
sV500
p3428
L5991L
sVE967.9
p3429
L4993L
sV725
p3430
L2432L
sV747.10
p3431
L7959L
sVV70.2
p3432
L3306L
sV318.1
p3433
L2417L
sVV20.1
p3434
L8063L
sV530.13
p3435
L2378L
sV972.0
p3436
L5325L
sVV12.42
p3437
L3092L
sV917.7
p3438
L6069L
sVV23.9
p3439
L2013L
sV484.7
p3440
L8454L
sV788.61
p3441
L6769L
sVV07.8
p3442
L1941L
sV378.9
p3443
L3317L
sV596.59
p3444
L3596L
sV370.63
p3445
L6745L
sV807.01
p3446
L1908L
sV537.5
p3447
L3776L
sV388.11
p3448
L8883L
sV375.12
p3449
L8764L
sV743.41
p3450
L7982L
sVE904.3
p3451
L6785L
sV360.63
p3452
L8210L
sVV49.75
p3453
L1428L
sV676.84
p3454
L5502L
sV736.74
p3455
L6618L
sV945.12
p3456
L8389L
sV578.9
p3457
L1261L
sV448.0
p3458
L8892L
sV348.8
p3459
L8690L
sVV28.6
p3460
L2095L
sV955.9
p3461
L4939L
sV358.8
p3462
L6346L
sV608.4
p3463
L4548L
sVE879.0
p3464
L2067L
sV519.09
p3465
L523L
sV956.4
p3466
L4980L
sV378.53
p3467
L6329L
sV141.0
p3468
L8755L
sV216.8
p3469
L5237L
sV305.20
p3470
L397L
sV770.7
p3471
L6270L
sV715.31
p3472
L1150L
sV376.01
p3473
L1539L
sVV13.81
p3474
L5891L
sVE980.6
p3475
L6431L
sV715.15
p3476
L1533L
sV804.20
p3477
L8882L
sV414.19
p3478
L5525L
sV757.5
p3479
L4431L
sV712.34
p3480
L6164L
sV730.01
p3481
L4597L
sV704.8
p3482
L1429L
sV789.06
p3483
L385L
sV344.89
p3484
L2898L
sV352.1
p3485
L8707L
sV873.73
p3486
L7348L
sV429.83
p3487
L3630L
sV232.3
p3488
L2520L
sV820.09
p3489
L866L
sV197.8
p3490
L6316L
sV718.10
p3491
L8678L
sVV77.1
p3492
L558L
sV172.8
p3493
L2939L
sV965.8
p3494
L5567L
sV733.00
p3495
L198L
sV381.20
p3496
L7717L
sVV46.2
p3497
L118L
sV812.02
p3498
L4266L
sV301.50
p3499
L5072L
sV305.41
p3500
L5400L
sV823.91
p3501
L5287L
sV378.00
p3502
L3124L
sV975.7
p3503
L7986L
sV868.09
p3504
L5258L
sVV58.42
p3505
L5583L
sV911.5
p3506
L1616L
sVV10.44
p3507
L5211L
sV304.42
p3508
L6283L
sV996.40
p3509
L1933L
sV996.83
p3510
L2780L
sV530.21
p3511
L2917L
sV438.2
p3512
L8903L
sV519.19
p3513
L847L
sV296.7
p3514
L1224L
sV345.91
p3515
L1326L
sV649.43
p3516
L1805L
sV951.5
p3517
L3904L
sV642.63
p3518
L3607L
sV535.10
p3519
L461L
sV190.6
p3520
L5839L
sV738.3
p3521
L3215L
sV558.41
p3522
L3056L
sV854.09
p3523
L7127L
sVV79.3
p3524
L5559L
sV786.09
p3525
L120L
sV216.9
p3526
L1839L
sV916.3
p3527
L3961L
sVE927.4
p3528
L7821L
sVE870.9
p3529
L7558L
sV813.11
p3530
L6755L
sV674.50
p3531
L6208L
sV528.79
p3532
L6958L
sV302.81
p3533
L6955L
sV820.21
p3534
L1632L
sV676.93
p3535
L8241L
sV367.20
p3536
L1868L
sV726.64
p3537
L3319L
sV863.81
p3538
L5285L
sVV61.9
p3539
L4775L
sV502
p3540
L4830L
sV099.3
p3541
L4050L
sV764.06
p3542
L2038L
sV160.2
p3543
L6632L
sVV09.91
p3544
L3858L
sV642.32
p3545
L5689L
sV287.4
p3546
L6458L
sV873.59
p3547
L8759L
sVV59.8
p3548
L5595L
sVV72.82
p3549
L1863L
sV749.13
p3550
L3687L
sV593.9
p3551
L459L
sV574.80
p3552
L6240L
sV788.2
p3553
L6507L
sV928.10
p3554
L6472L
sV816.12
p3555
L5605L
sV616.51
p3556
L5253L
sV567.23
p3557
L2184L
sV440.23
p3558
L1372L
sV304.41
p3559
L4349L
sV368.40
p3560
L3535L
sVE005.0
p3561
L6790L
sV953.9
p3562
L6262L
sV759.7
p3563
L3473L
sV011.60
p3564
L7003L
sV447.9
p3565
L3633L
sV944.11
p3566
L3223L
sV300.14
p3567
L4026L
sVV44.4
p3568
L4972L
sV722.91
p3569
L1295L
sV361.12
p3570
L6537L
sV172.6
p3571
L7892L
sV017.50
p3572
L5727L
sV864.03
p3573
L9018L
sV296.80
p3574
L257L
sV873.42
p3575
L1321L
sVV85.1
p3576
L2546L
sV643.13
p3577
L2859L
sVV13.59
p3578
L3327L
sVE986
p3579
L3451L
sVV49.5
p3580
L7569L
sV614.6
p3581
L5275L
sV364.74
p3582
L4204L
sV719.51
p3583
L1143L
sV853.01
p3584
L6043L
sVV16.40
p3585
L5820L
sV749.20
p3586
L3463L
sV741.93
p3587
L4926L
sV313.22
p3588
L7929L
sV987.1
p3589
L5849L
sV991.2
p3590
L7261L
sV997.60
p3591
L2326L
sV654.53
p3592
L5267L
sVE941.2
p3593
L6796L
sV410.31
p3594
L3357L
sV553.20
p3595
L1581L
sV851.44
p3596
L8813L
sV099.0
p3597
L4960L
sV250.61
p3598
L2321L
sV995.29
p3599
L705L
sV078.0
p3600
L2448L
sV189.8
p3601
L8303L
sV299
p3602
L4795L
sV337.9
p3603
L3496L
sV810.03
p3604
L4799L
sV781.94
p3605
L1614L
sV455.4
p3606
L4201L
sV963.1
p3607
L7499L
sVE958.0
p3608
L1209L
sV255.42
p3609
L7102L
sV998.31
p3610
L3504L
sV641.23
p3611
L2112L
sVE934.9
p3612
L8867L
sV374.46
p3613
L6080L
sV179
p3614
L2191L
sV482.82
p3615
L5974L
sVV16.9
p3616
L1243L
sV415.0
p3617
L2904L
sV234.9
p3618
L5661L
sVV61.03
p3619
L7018L
sV372.40
p3620
L2426L
sV926.11
p3621
L8341L
sVV57.21
p3622
L2233L
sV799.00
p3623
L8500L
sVE821.9
p3624
L1689L
sV516.34
p3625
L5246L
sV427.41
p3626
L2686L
sV366.50
p3627
L1824L
sVV54.15
p3628
L1772L
sV157.0
p3629
L3705L
sV607.89
p3630
L6294L
sVV65.11
p3631
L6962L
sV881.02
p3632
L650L
sVE928.8
p3633
L951L
sV671.44
p3634
L6646L
sV255.13
p3635
L6862L
sV520.4
p3636
L8179L
sVV12.00
p3637
L5182L
sV669.01
p3638
L8438L
sV803.16
p3639
L9022L
sV558.3
p3640
L7012L
sV389.22
p3641
L4614L
sV293.9
p3642
L4285L
sV571.41
p3643
L6687L
sV719.68
p3644
L7422L
sVE905.4
p3645
L7985L
sV842.00
p3646
L350L
sV835.01
p3647
L7664L
sV511.1
p3648
L4395L
sV813.82
p3649
L2883L
sV642.52
p3650
L5468L
sV698.2
p3651
L5073L
sV593.2
p3652
L672L
sV716.67
p3653
L9002L
sV296.43
p3654
L3733L
sVE960.1
p3655
L2999L
sV378.73
p3656
L8966L
sVV23.49
p3657
L773L
sV996.77
p3658
L1931L
sV813.81
p3659
L1911L
sV373.9
p3660
L5998L
sVE815.9
p3661
L8017L
sV200.30
p3662
L2373L
sV244.2
p3663
L2510L
sV945.10
p3664
L3884L
sV574.51
p3665
L2090L
sV796.6
p3666
L6265L
sVV49.62
p3667
L1892L
sV747.89
p3668
L8275L
sV238.1
p3669
L3985L
sV996.46
p3670
L4383L
sV652.20
p3671
L7563L
sVE812.0
p3672
L969L
sV659.63
p3673
L4817L
sV642.01
p3674
L5154L
sV820.02
p3675
L2495L
sV209.69
p3676
L6936L
sV296.64
p3677
L3374L
sV715.00
p3678
L1296L
sV947.1
p3679
L3023L
sVV41.2
p3680
L3097L
sV592.1
p3681
L551L
sV482.81
p3682
L8229L
sVV68.2
p3683
L5845L
sV789.66
p3684
L898L
sV907.2
p3685
L115L
sV307.81
p3686
L1305L
sV426.82
p3687
L2778L
sV346.01
p3688
L2710L
sV173.42
p3689
L5735L
sV386.02
p3690
L8749L
sV714.32
p3691
L7703L
sV749.00
p3692
L3465L
sV719.99
p3693
L2476L
sV625.70
p3694
L4860L
sV897.6
p3695
L1889L
sV644.20
p3696
L2252L
sV459.10
p3697
L5895L
sV282.62
p3698
L6401L
sV287.9
p3699
L3361L
sV753.17
p3700
L2790L
sV378.54
p3701
L5438L
sV300.5
p3702
L1315L
sV527.8
p3703
L546L
sV996.88
p3704
L4544L
sV174.6
p3705
L6805L
sV820.8
p3706
L867L
sV379.56
p3707
L4973L
sV529.1
p3708
L5419L
sV282.42
p3709
L8613L
sV461
p3710
L8775L
sV452
p3711
L3183L
sV733.93
p3712
L5835L
sV373.01
p3713
L3147L
sV381.9
p3714
L3433L
sV726.65
p3715
L2644L
sV779.99
p3716
L4463L
sV296.24
p3717
L4696L
sV642.71
p3718
L6193L
sVV65.49
p3719
L254L
sVE939.8
p3720
L5422L
sV823.01
p3721
L3903L
sV346.21
p3722
L635L
sV780.71
p3723
L2695L
sV230.1
p3724
L5653L
sV956.8
p3725
L7905L
sV799.01
p3726
L3247L
sVV10.9
p3727
L8936L
sVV67.00
p3728
L380L
sVV13.09
p3729
L1272L
sV305
p3730
L1225L
sV605
p3731
L2881L
sV716.60
p3732
L3047L
sV155.2
p3733
L1643L
sV336.9
p3734
L1457L
sV790.4
p3735
L142L
sV201.94
p3736
L6987L
sV410.60
p3737
L8379L
sV707.03
p3738
L136L
sVE887
p3739
L57L
sV902.81
p3740
L8863L
sV702.8
p3741
L5001L
sVV71.02
p3742
L5458L
sV363.63
p3743
L5427L
sV290.13
p3744
L3322L
sV754.62
p3745
L6161L
sV848.49
p3746
L8901L
sV261
p3747
L2772L
sV996.65
p3748
L6377L
sV054.41
p3749
L7954L
sV346.80
p3750
L3095L
sV976.6
p3751
L5457L
sV271.3
p3752
L46L
sV256.4
p3753
L1984L
sV551.1
p3754
L7156L
sV388.30
p3755
L1251L
sV288.64
p3756
L8830L
sV412
p3757
L1026L
sV569.82
p3758
L3844L
sV453.89
p3759
L2664L
sV641.21
p3760
L5691L
sV447.0
p3761
L2058L
sV523.40
p3762
L4101L
sV695.0
p3763
L8198L
sV789.34
p3764
L4172L
sV553.29
p3765
L5206L
sV270.0
p3766
L7531L
sV960.9
p3767
L6704L
sV416.9
p3768
L3869L
sVV77.2
p3769
L7492L
sV394.1
p3770
L4287L
sV370.8
p3771
L8235L
sV363.70
p3772
L6572L
sVE007.7
p3773
L3625L
sV719.09
p3774
L4792L
sV228.04
p3775
L3862L
sVE823.0
p3776
L7885L
sV355.6
p3777
L1785L
sV275.8
p3778
L4573L
sV897.5
p3779
L6484L
sV205.22
p3780
L7559L
sV337.3
p3781
L6320L
sVV50.0
p3782
L8289L
sV804.30
p3783
L8377L
sV643.00
p3784
L5464L
sV381.4
p3785
L2391L
sV788.69
p3786
L1030L
sVE920.2
p3787
L3246L
sV147.1
p3788
L7721L
sV813.00
p3789
L4725L
sV806.39
p3790
L7541L
sV790.95
p3791
L4499L
sV438.84
p3792
L2769L
sV379.42
p3793
L6478L
sV488.81
p3794
L4315L
sV746.85
p3795
L3944L
sV997.62
p3796
L2325L
sV319
p3797
L1267L
sV711.16
p3798
L8619L
sV337.01
p3799
L6718L
sV506.3
p3800
L8045L
sV729.31
p3801
L6895L
sV301.22
p3802
L8658L
sV225.9
p3803
L7790L
sVV60.1
p3804
L5865L
sVV70.5
p3805
L1642L
sVV56.32
p3806
L6876L
sVE962.0
p3807
L4121L
sV3430
p3808
L5994L
sV733.01
p3809
L450L
sV794.09
p3810
L2684L
sVV64.41
p3811
L3704L
sV944.08
p3812
L5348L
sV695.89
p3813
L4072L
sV520.6
p3814
L3135L
sVE967.3
p3815
L3368L
sVE925.9
p3816
L5196L
sV863.44
p3817
L8720L
sV384.00
p3818
L3989L
sVV07.4
p3819
L1318L
sV993.1
p3820
L4872L
sVE854.1
p3821
L8256L
sV457.9
p3822
L6836L
sV681.1
p3823
L6160L
sVE906.2
p3824
L6443L
sV593.1
p3825
L4963L
sV282.49
p3826
L1896L
sV171.9
p3827
L5403L
sVV62.82
p3828
L3113L
sV737.41
p3829
L5932L
sV628.9
p3830
L3939L
sV376.42
p3831
L5778L
sVV17.7
p3832
L4054L
sV433.10
p3833
L1081L
sV647.64
p3834
L7919L
sV361.32
p3835
L5834L
sV733.42
p3836
L3165L
sV363.20
p3837
L3601L
sV258.01
p3838
L8528L
sV079.88
p3839
L5317L
sV459.11
p3840
L4301L
sV434.00
p3841
L2558L
sV111.2
p3842
L5643L
sV656.61
p3843
L6380L
sV718.30
p3844
L2655L
sV719.07
p3845
L1419L
sV913.4
p3846
L4427L
sV286.59
p3847
L4749L
sV277.2
p3848
L5838L
sV730.78
p3849
L7204L
sV787.6
p3850
L4241L
sV483.1
p3851
L7445L
sVV82.2
p3852
L4702L
sV748.0
p3853
L6652L
sV813.92
p3854
L8984L
sV301.10
p3855
L6021L
sV471.9
p3856
L2762L
sV362.70
p3857
L6405L
sV994.5
p3858
L8287L
sVV10.83
p3859
L1961L
sV307.53
p3860
L8122L
sV647.90
p3861
L7251L
sV910.3
p3862
L5775L
sV157.1
p3863
L5781L
sV997.49
p3864
L2409L
sV134.8
p3865
L8053L
sV440.31
p3866
L5813L
sV706.3
p3867
L2120L
sV296.81
p3868
L7299L
sV974.1
p3869
L6451L
sV690.18
p3870
L4565L
sV730.79
p3871
L8227L
sV526.69
p3872
L6859L
sV363.9
p3873
L8208L
sV824.5
p3874
L6348L
sV038.0
p3875
L1455L
sVE927.8
p3876
L1499L
sV854.0
p3877
L7946L
sV367.89
p3878
L5300L
sV066.3
p3879
L3982L
sV372.51
p3880
L1006L
sV277.4
p3881
L2599L
sV780.55
p3882
L2143L
sVV66.5
p3883
L6925L
sV244.9
p3884
L221L
sV832.00
p3885
L7203L
sV208.91
p3886
L3769L
sV373.31
p3887
L6282L
sV405.19
p3888
L3185L
sV242.00
p3889
L3249L
sV803.09
p3890
L8632L
sVE869.9
p3891
L5924L
sV371.22
p3892
L4522L
sV882.0
p3893
L1350L
sV528.6
p3894
L7992L
sV338.22
p3895
L3772L
sV716.18
p3896
L1110L
sV250.72
p3897
L1416L
sV455.9
p3898
L3055L
sV218.2
p3899
L2390L
sVV02.54
p3900
L3100L
sVV53.99
p3901
L4581L
sV796.2
p3902
L40L
sV704.09
p3903
L4181L
sVV16.6
p3904
L6524L
sV736.30
p3905
L3202L
sVV11.8
p3906
L1370L
sV304.91
p3907
L735L
sV788.5
p3908
L557L
sVV05.9
p3909
L1755L
sV533.21
p3910
L7979L
sV200.53
p3911
L5117L
sV276.61
p3912
L4258L
sV487.1
p3913
L737L
sV403.9
p3914
L5738L
sV722.31
p3915
L4409L
sV404.92
p3916
L5743L
sV377.21
p3917
L7626L
sV960.8
p3918
L6086L
sV968.5
p3919
L7737L
sV762.3
p3920
L8864L
sV404.11
p3921
L2795L
sVV07.0
p3922
L5075L
sV251.3
p3923
L4546L
sVV58.63
p3924
L2246L
sV945.22
p3925
L953L
sV624.01
p3926
L6018L
sV624.1
p3927
L2697L
sV996.85
p3928
L5345L
sVV53.31
p3929
L1443L
sV711.45
p3930
L5027L
sVE840.8
p3931
L8402L
sV716.12
p3932
L7738L
sV429.89
p3933
L4924L
sV268.9
p3934
L191L
sV992.9
p3935
L6046L
sV209.74
p3936
L3739L
sV011.50
p3937
L8831L
sVV46.9
p3938
L5981L
sV045.10
p3939
L2212L
sV921.9
p3940
L1222L
sV649.44
p3941
L8788L
sV262
p3942
L158L
sV172.1
p3943
L7867L
sV832.2
p3944
L7901L
sV429.3
p3945
L312L
sV969.72
p3946
L2147L
sV295.80
p3947
L2871L
sV372.02
p3948
L5543L
sVV70.8
p3949
L4343L
sV054.19
p3950
L4354L
sV595.1
p3951
L638L
sV349.82
p3952
L2536L
sV490
p3953
L179L
sV726.79
p3954
L1980L
sV784.44
p3955
L8542L
sV716.94
p3956
L3251L
sV782.61
p3957
L3839L
sV924.00
p3958
L1508L
sV295.85
p3959
L6899L
sV365.65
p3960
L3399L
sV339.43
p3961
L3574L
sV783.41
p3962
L3796L
sV296.8
p3963
L5948L
sV952.19
p3964
L8826L
sVV49.9
p3965
L7264L
sV692.0
p3966
L3723L
sV421.9
p3967
L1449L
sV653.41
p3968
L8509L
sV242.90
p3969
L805L
sV245.1
p3970
L6554L
sVE935.2
p3971
L1929L
sV372.81
p3972
L4183L
sV719.93
p3973
L4556L
sV458.1
p3974
L1869L
sV724.02
p3975
L1161L
sV521.20
p3976
L2992L
sV716.25
p3977
L8435L
sV588.1
p3978
L6937L
sV298.2
p3979
L44L
sVV14.2
p3980
L999L
sVV43.64
p3981
L870L
sV945.44
p3982
L8365L
sV385.19
p3983
L7015L
sV692.4
p3984
L3709L
sV648.80
p3985
L786L
sV350.8
p3986
L5366L
sV378.30
p3987
L2086L
sV295.60
p3988
L5842L
sV384.23
p3989
L8625L
sV747.64
p3990
L5448L
sV741.02
p3991
L6904L
sV288.6
p3992
L6173L
sV369.00
p3993
L809L
sV654.00
p3994
L7397L
sV301.59
p3995
L4187L
sV959.7
p3996
L631L
sV191.0
p3997
L6525L
sV334.0
p3998
L7849L
sV813.44
p3999
L2742L
sVV69.0
p4000
L4721L
sV736.81
p4001
L2008L
sV427.2
p4002
L5753L
sV279.51
p4003
L5445L
sV202.08
p4004
L8124L
sV820.11
p4005
L1635L
sVV43.7
p4006
L6877L
sV962.7
p4007
L5886L
sV781.0
p4008
L515L
sV210.2
p4009
L6399L
sV233.0
p4010
L493L
sV571.40
p4011
L1432L
sV402.11
p4012
L2471L
sV156.0
p4013
L3385L
sV753.29
p4014
L3471L
sVV82.9
p4015
L1066L
sV372.14
p4016
L1014L
sV881.21
p4017
L7466L
sV359.81
p4018
L1333L
sV287.33
p4019
L6974L
sV390
p4020
L4919L
sV916.5
p4021
L6030L
sV823.22
p4022
L5682L
sV788.33
p4023
L513L
sV455.1
p4024
L5663L
sV344.9
p4025
L108L
sV370.21
p4026
L4218L
sVV15.88
p4027
L288L
sV309.82
p4028
L6889L
sV453.52
p4029
L5110L
sV730.05
p4030
L2190L
sV290.20
p4031
L5091L
sV788.34
p4032
L4280L
sV648.93
p4033
L604L
sVE856
p4034
L7489L
sVE934.0
p4035
L4820L
sV795.11
p4036
L3146L
sV625.1
p4037
L2964L
sV308.4
p4038
L7154L
sV288.02
p4039
L2003L
sV715.20
p4040
L3511L
sVV40.2
p4041
L3870L
sV764.00
p4042
L8411L
sVE939.2
p4043
L7391L
sV611.9
p4044
L2129L
sV278.01
p4045
L274L
sV753.16
p4046
L6003L
sV429.6
p4047
L6514L
sV535.40
p4048
L625L
sV822.1
p4049
L5827L
sV730.28
p4050
L1725L
sV525.60
p4051
L4048L
sV127.4
p4052
L5263L
sV567.22
p4053
L1745L
sV733.95
p4054
L5146L
sV871.6
p4055
L6436L
sVN91
p4056
L4332L
sV344.61
p4057
L2885L
sV651.00
p4058
L4785L
sV592.9
p4059
L553L
sV365.9
p4060
L2602L
sVV76.89
p4061
L4255L
sV739.3
p4062
L1636L
sV756.9
p4063
L6339L
sVV26.41
p4064
L5587L
sVV45.3
p4065
L3757L
sV996.82
p4066
L4058L
sV202.83
p4067
L7197L
sV079.0
p4068
L7105L
sV146.7
p4069
L173L
sV569.44
p4070
L5224L
sV634.12
p4071
L2503L
sVE905.2
p4072
L5971L
sV875.0
p4073
L2800L
sV292.0
p4074
L596L
sV780.91
p4075
L7036L
sVV13.68
p4076
L8571L
sV380.52
p4077
L4571L
sV791.7
p4078
L2237L
sV841.1
p4079
L7882L
sV796.9
p4080
L1864L
sVE886.0
p4081
L5185L
sVV04.7
p4082
L8057L
sV474.12
p4083
L6167L
sV756.71
p4084
L8741L
sV386.03
p4085
L8758L
sVV62.4
p4086
L1314L
sV523.5
p4087
L7498L
sV417.0
p4088
L6577L
sV969.5
p4089
L5717L
sV379.24
p4090
L1696L
sV345.81
p4091
L4229L
sV295.74
p4092
L2872L
sV787.5
p4093
L3975L
sV945.00
p4094
L5719L
sVV42.89
p4095
L6590L
sV305.01
p4096
L1L
sV249.80
p4097
L4109L
sV730.22
p4098
L6112L
sV718.05
p4099
L5892L
sV681.9
p4100
L1523L
sV534.91
p4101
L6398L
sV296.65
p4102
L5138L
sV305.23
p4103
L4593L
sV991.5
p4104
L5453L
sV364.3
p4105
L1942L
sVE854.0
p4106
L3323L
sV690.11
p4107
L4468L
sV878.1
p4108
L8001L
sV666.04
p4109
L6119L
sV556.3
p4110
L4210L
sV896.0
p4111
L4520L
sV622.8
p4112
L6130L
sV289.4
p4113
L1647L
sV553.00
p4114
L909L
sV786.7
p4115
L1087L
sVE849.8
p4116
L1630L
sV141.9
p4117
L5658L
sV956.9
p4118
L8240L
sV482.2
p4119
L3441L
sV788.0
p4120
L1228L
sV649.73
p4121
L3906L
sV958.6
p4122
L6719L
sV653.83
p4123
L8047L
sV730.20
p4124
L1384L
sV904.50
p4125
L7978L
sV754.61
p4126
L3782L
sV607.85
p4127
L7616L
sV365.22
p4128
L4423L
sV239.3
p4129
L1132L
sV995.83
p4130
L2109L
sV269.0
p4131
L6288L
sV966.1
p4132
L2544L
sV707.11
p4133
L5147L
sV861.20
p4134
L5977L
sV525.9
p4135
L1307L
sV362.20
p4136
L8635L
sV843.0
p4137
L7103L
sV659.41
p4138
L5807L
sV260
p4139
L4519L
sV759.82
p4140
L5508L
sV596.81
p4141
L6205L
sV733.21
p4142
L5221L
sV944.10
p4143
L3222L
sV099.56
p4144
L8183L
sV354.8
p4145
L2948L
sV803.40
p4146
L6047L
sV786.51
p4147
L423L
sV815.01
p4148
L2743L
sV557.9
p4149
L1823L
sV201.90
p4150
L4338L
sV237.72
p4151
L3931L
sV910.5
p4152
L8403L
sV367.4
p4153
L347L
sV457.2
p4154
L4527L
sV435.0
p4155
L8211L
sV384.9
p4156
L3492L
sV537.6
p4157
L6140L
sV807.09
p4158
L820L
sV304.20
p4159
L742L
sV737.40
p4160
L4492L
sVV61.10
p4161
L3734L
sV480.2
p4162
L7694L
sV366.00
p4163
L4066L
sV015.00
p4164
L6107L
sVE819.4
p4165
L2551L
sV357.4
p4166
L1021L
sV123.1
p4167
L6257L
sV812.01
p4168
L759L
sV312.30
p4169
L3571L
sV339.3
p4170
L4612L
sV646.10
p4171
L2959L
sV078.88
p4172
L8859L
sV040.2
p4173
L2633L
sVE924.8
p4174
L1795L
sV736.05
p4175
L6851L
sV276.51
p4176
L28L
sV242.20
p4177
L4976L
sV319.
p4178
L5321L
sV709.00
p4179
L1955L
sV172.4
p4180
L8782L
sV848.42
p4181
L4979L
sVV03.82
p4182
L298L
sV733.0
p4183
L4954L
sV718.41
p4184
L7567L
sV327.8
p4185
L4116L
sV537.9
p4186
L2287L
sV428.42
p4187
L4274L
sV209.31
p4188
L5707L
sV715.22
p4189
L8372L
sV209.64
p4190
L7091L
sVV75.4
p4191
L4494L
sV346.83
p4192
L7448L
sVV58.0
p4193
L3692L
sV308.1
p4194
L4769L
sV728.71
p4195
L441L
sV532.50
p4196
L6136L
sV297.9
p4197
L2483L
sV339.05
p4198
L5411L
sV131.9
p4199
L3700L
sV841.8
p4200
L4150L
sV715.09
p4201
L331L
sV077.8
p4202
L5599L
sV928.3
p4203
L3963L
sV680.2
p4204
L4511L
sV616.9
p4205
L4920L
sV711.05
p4206
L4996L
sV553.21
p4207
L3453L
sV738.19
p4208
L5000L
sV532.71
p4209
L7823L
sVV23.5
p4210
L5132L
sV369.15
p4211
L7464L
sV536.8
p4212
L241L
sV369
p4213
L8953L
sV327.24
p4214
L2986L
sV388.10
p4215
L5936L
sV625.2
p4216
L6502L
sV595.2
p4217
L901L
sV715.34
p4218
L1055L
sV352.4
p4219
L8549L
sV235.4
p4220
L4328L
sV335.22
p4221
L7787L
sV239.6
p4222
L2813L
sV923.00
p4223
L808L
sV872.11
p4224
L7503L
sV174.3
p4225
L1962L
sVV73.6
p4226
L8766L
sV871.0
p4227
L4928L
sV307.42
p4228
L1400L
sVV05.8
p4229
L1078L
sV873.44
p4230
L2177L
sV746.4
p4231
L4709L
sV288.60
p4232
L333L
sV789.1
p4233
L941L
sV712.12
p4234
L8608L
sV968.9
p4235
L7408L
sV780.62
p4236
L6474L
sVV65.3
p4237
L2414L
sV812.51
p4238
L7394L
sV571.0
p4239
L3363L
sV424.0
p4240
L1190L
sV381.10
p4241
L3464L
sV344.31
p4242
L8193L
sV230.7
p4243
L842L
sV389.00
p4244
L3423L
sVV58.77
p4245
L1358L
sV596.89
p4246
L2524L
sV438.31
p4247
L6782L
sV367.22
p4248
L2924L
sV158.8
p4249
L8201L
sVV18.7
p4250
L8483L
sV379.41
p4251
L4895L
sV957.9
p4252
L2808L
sV342.82
p4253
L2854L
sV760.61
p4254
L6133L
sV110.8
p4255
L2868L
sVE888.9
p4256
L29L
sV110.2
p4257
L7398L
sV756.70
p4258
L8405L
sV031.8
p4259
L8248L
sV932
p4260
L5857L
sV327.26
p4261
L1177L
sV707.23
p4262
L1374L
sV346.02
p4263
L4851L
sV200.40
p4264
L6747L
sV339.42
p4265
L3150L
sV617.2
p4266
L3703L
sVV09.0
p4267
L6059L
sV647.83
p4268
L6593L
sV805.04
p4269
L6462L
sV334.8
p4270
L8236L
sVV16.0
p4271
L457L
sV837.1
p4272
L6712L
sV607.9
p4273
L1062L
sV213.5
p4274
L7748L
sV716.40
p4275
L2291L
sVE917.6
p4276
L7227L
sV196.1
p4277
L7593L
sV902.40
p4278
L4903L
sV979.7
p4279
L7129L
sV866.02
p4280
L9020L
sV868.10
p4281
L5899L
sVV58.76
p4282
L4847L
sV790.21
p4283
L911L
sV852.22
p4284
L4363L
sV529.5
p4285
L5805L
sV742.3
p4286
L3462L
sV664.24
p4287
L6969L
sV756.89
p4288
L6511L
sV752.49
p4289
L5030L
sV428.21
p4290
L2424L
sV754.41
p4291
L8195L
sV715.28
p4292
L7465L
sV726.73
p4293
L1115L
sV952.02
p4294
L8030L
sV792.1
p4295
L1484L
sV799.89
p4296
L3760L
sV948.22
p4297
L8364L
sVV28.0
p4298
L5736L
sV879.5
p4299
L4264L
sV369.66
p4300
L8921L
sVV06.2
p4301
L7468L
sV151.9
p4302
L4836L
sV906.0
p4303
L6189L
sV201.50
p4304
L8431L
sVV24.1
p4305
L5469L
sVV12.01
p4306
L5128L
sV296.34
p4307
L1972L
sV744.0
p4308
L8355L
sV272.6
p4309
L3849L
sV969.05
p4310
L1217L
sVV16.8
p4311
L4088L
sV487.8
p4312
L1849L
sV648.00
p4313
L3604L
sVE888.1
p4314
L2161L
sV942.14
p4315
L3942L
sV391.8
p4316
L8501L
sV041.5
p4317
L3442L
sV422.90
p4318
L2724L
sV755.39
p4319
L8824L
sV718.03
p4320
L5610L
sV789.04
p4321
L644L
sV814.09
p4322
L4282L
sVV20.31
p4323
L792L
sV550.12
p4324
L6950L
sV752.61
p4325
L4393L
sV377.12
p4326
L3972L
sVV12.72
p4327
L1105L
sV948.20
p4328
L8363L
sV802.4
p4329
L4127L
sVE922.8
p4330
L6327L
sV263.1
p4331
L2460L
sV912.5
p4332
L6868L
sV200.35
p4333
L8200L
sV921.3
p4334
L4984L
sV300.0
p4335
L8026L
sV969.4
p4336
L1207L
sV272.2
p4337
L319L
sV984.9
p4338
L4958L
sV652.01
p4339
L7878L
sV474.8
p4340
L2933L
sV153.4
p4341
L2595L
sV053.79
p4342
L3386L
sV719.29
p4343
L8537L
sV719.47
p4344
L718L
sV602.2
p4345
L6797L
sV380.39
p4346
L4853L
sV795.02
p4347
L4823L
sV945.13
p4348
L7504L
sV915.2
p4349
L4746L
sV235.2
p4350
L4208L
sV756.19
p4351
L4124L
sV335.24
p4352
L8025L
sVV45.01
p4353
L1447L
sVV09.50
p4354
L8461L
sV783.1
p4355
L402L
sV718.55
p4356
L6177L
sV210.5
p4357
L5649L
sV771.1
p4358
L3589L
sV288.8
p4359
L2798L
sV482.1
p4360
L1993L
sV438.14
p4361
L4580L
sV363.32
p4362
L2760L
sV580.0
p4363
L4152L
sV426.6
p4364
L5925L
sV616.50
p4365
L4135L
sV663.11
p4366
L3909L
sV943.31
p4367
L8117L
sV295.44
p4368
L5492L
sV797
p4369
L710L
sV351.9
p4370
L5074L
sV670.24
p4371
L5592L
sVV25.41
p4372
L3144L
sV718.17
p4373
L2205L
sV965.00
p4374
L2146L
sV345.70
p4375
L7795L
sV945.46
p4376
L9025L
sV251.8
p4377
L1641L
sVV85.0
p4378
L1574L
sVV88.02
p4379
L2302L
sV698.4
p4380
L4578L
sV784.5
p4381
L7846L
sVE828.2
p4382
L2929L
sVV67.6
p4383
L2249L
sV911.1
p4384
L7395L
sV297.1
p4385
L2865L
sV312.31
p4386
L6089L
sV184.0
p4387
L5212L
sV041.3
p4388
L2979L
sV203.02
p4389
L6281L
sV944.28
p4390
L4804L
sV722.6
p4391
L239L
sVV10.91
p4392
L4339L
sVE855.1
p4393
L3901L
sV171.6
p4394
L8108L
sV716.15
p4395
L4351L
sVE888.8
p4396
L716L
sV473.0
p4397
L2747L
sV362.07
p4398
L1724L
sV249.50
p4399
L5040L
sV362.03
p4400
L4329L
sVV14.8
p4401
L797L
sV810.11
p4402
L8162L
sV365.12
p4403
L1821L
sV394.0
p4404
L1278L
sV117.1
p4405
L8308L
sV287.32
p4406
L7595L
sV573.1
p4407
L6833L
sV807.19
p4408
L6323L
sV478.34
p4409
L4883L
sV721.7
p4410
L8375L
sV616.10
p4411
L282L
sVV15.03
p4412
L3918L
sV345.00
p4413
L1355L
sV717.49
p4414
L4382L
sV755.69
p4415
L4352L
sV361.03
p4416
L8036L
sV304.43
p4417
L5319L
sV332
p4418
L8661L
sVE884.9
p4419
L2160L
sV327.52
p4420
L2251L
sV696.5
p4421
L7812L
sV377.49
p4422
L5831L
sV914.5
p4423
L8049L
sV621.2
p4424
L1495L
sVE819.9
p4425
L3170L
sV309
p4426
L7715L
sV210.4
p4427
L5337L
sV755.60
p4428
L3482L
sV717.1
p4429
L2453L
sV438.30
p4430
L5347L
sV716.90
p4431
L194L
sV745.3
p4432
L8370L
sVE878.5
p4433
L2328L
sV610.3
p4434
L1130L
sV701.5
p4435
L1749L
sV478.30
p4436
L2732L
sV158.0
p4437
L7971L
sV315.2
p4438
L1693L
sV726.39
p4439
L5861L
sV692.6
p4440
L6947L
sV736.5
p4441
L7095L
sV364.60
p4442
L8981L
sV799.0
p4443
L6134L
sV652.33
p4444
L8164L
sV917.4
p4445
L3785L
sV923.09
p4446
L5812L
sV182.1
p4447
L8506L
sV283.2
p4448
L8979L
sV755.64
p4449
L2721L
sV530.8
p4450
L3534L
sV711.93
p4451
L8560L
sV286.0
p4452
L4147L
sV794.9
p4453
L1279L
sV051.2
p4454
L8374L
sV748.60
p4455
L3864L
sV387.1
p4456
L7666L
sV374.50
p4457
L5374L
sV372.71
p4458
L2429L
sV324.9
p4459
L4852L
sVV72.0
p4460
L695L
sV366.18
p4461
L3556L
sV718.81
p4462
L2362L
sV478.9
p4463
L2971L
sV743.65
p4464
L6236L
sV198.81
p4465
L5481L
sV295.82
p4466
L2144L
sV716.62
p4467
L3049L
sV291.81
p4468
L1198L
sV557.0
p4469
L2777L
sV641.00
p4470
L6116L
sV726.62
p4471
L3063L
sV838.00
p4472
L2643L
sV722.30
p4473
L4812L
sV525.22
p4474
L4403L
sV618.2
p4475
L7546L
sV249.60
p4476
L1481L
sV374.9
p4477
L6561L
sV421.0
p4478
L1454L
sV263.0
p4479
L1418L
sV524.61
p4480
L8842L
sV579.3
p4481
L5450L
sV358.01
p4482
L7454L
sV327.13
p4483
L4434L
sV959.9
p4484
L721L
sV730.02
p4485
L6110L
sV730.14
p4486
L4579L
sV756.0
p4487
L3461L
sV441.01
p4488
L3946L
sV834.02
p4489
L2538L
sV745.0
p4490
L8239L
sV718.18
p4491
L5144L
sV173.50
p4492
L991L
sV727.03
p4493
L1820L
sV273.2
p4494
L5055L
sV112.81
p4495
L7925L
sV365.70
p4496
L4245L
sVE906.5
p4497
L7838L
sVE917.1
p4498
L7133L
sV299.0
p4499
L4278L
sV515
p4500
L1332L
sV295.33
p4501
L7868L
sV233.1
p4502
L3043L
sV996.30
p4503
L3272L
sV784.41
p4504
L1317L
sV694.5
p4505
L5049L
sV742.1
p4506
L3240L
sV768.9
p4507
L6070L
sV730.13
p4508
L5482L
sV646.71
p4509
L8264L
sV250.5
p4510
L8796L
sV601.1
p4511
L3452L
sV701.9
p4512
L1921L
sVE825.7
p4513
L7237L
sV719.17
p4514
L7259L
sV807.11
p4515
L7669L
sV704.2
p4516
L5737L
sV730.21
p4517
L2941L
sV726.61
p4518
L1042L
sV250.93
p4519
L1611L
sV916.8
p4520
L5556L
sV788.36
p4521
L1502L
sV701.3
p4522
L2879L
sVN95
p4523
L4330L
sVE911
p4524
L2671L
sV681.00
p4525
L2110L
sV823.90
p4526
L5909L
sV901.0
p4527
L8601L
sV224.6
p4528
L2164L
sV915.7
p4529
L5503L
sV799.8
p4530
L8636L
sV327.19
p4531
L6376L
sV150.8
p4532
L5662L
sV941.38
p4533
L8695L
sVE927.3
p4534
L3626L
sV550.90
p4535
L916L
sV626.6
p4536
L2298L
sV521.81
p4537
L4509L
sV942.21
p4538
L7068L
sV369.4
p4539
L807L
sV133.8
p4540
L7921L
sV666.12
p4541
L2255L
sV522.1
p4542
L5232L
sV957.1
p4543
L8111L
sVV70.1
p4544
L2734L
sV786.9
p4545
L321L
sV695.13
p4546
L3732L
sV789.33
p4547
L2283L
sV572.2
p4548
L22L
sV493.12
p4549
L6010L
sV930.8
p4550
L6857L
sV560.2
p4551
L1173L
sVV25.11
p4552
L614L
sV066.40
p4553
L6105L
sV205.02
p4554
L6952L
sV394.2
p4555
L1293L
sV854.06
p4556
L6181L
sV219.0
p4557
L7211L
sV363.62
p4558
L7843L
sVV15.02
p4559
L4633L
sV461.0
p4560
L564L
sVV45.11
p4561
L806L
sV254.8
p4562
L6564L
sV873.41
p4563
L1833L
sV078.81
p4564
L7037L
sV997.5
p4565
L5417L
sV117.9
p4566
L1987L
sV574.00
p4567
L415L
sV575.10
p4568
L2714L
sV750.10
p4569
L7771L
sV315.31
p4570
L1466L
sV508.9
p4571
L7926L
sVE958.1
p4572
L7794L
sV461.2
p4573
L2505L
sV293.89
p4574
L4392L
sV204.80
p4575
L2844L
sVV01.79
p4576
L2279L
sVE935.9
p4577
L7410L
sV371.23
p4578
L8376L
sV304.93
p4579
L2055L
sV564.81
p4580
L111L
sVV10.87
p4581
L939L
sV848.9
p4582
L2958L
sVV16.1
p4583
L6886L
sVE017.9
p4584
L7894L
sV865.01
p4585
L7508L
sV426.89
p4586
L2547L
sV728.0
p4587
L3968L
sV622.12
p4588
L574L
sV704.02
p4589
L4840L
sV272.3
p4590
L1954L
sV969.8
p4591
L5854L
sVV72.3
p4592
L7570L
sV835.00
p4593
L2141L
sV300.02
p4594
L132L
sV376.30
p4595
L1775L
sV722.71
p4596
L1300L
sV077.99
p4597
L5015L
sV789.01
p4598
L374L
sV182.0
p4599
L3104L
sV372.39
p4600
L2622L
sV356.1
p4601
L5875L
sVE936.1
p4602
L5163L
sV201.92
p4603
L8767L
sVV57.89
p4604
L114L
sV157.3
p4605
L7661L
sVE853.8
p4606
L6031L
sV371.60
p4607
L3338L
sV389.14
p4608
L4381L
sV995.65
p4609
L4757L
sVE818.1
p4610
L1311L
sV648.30
p4611
L7307L
sVV64.04
p4612
L6887L
sV813.06
p4613
L7589L
sV951.4
p4614
L8333L
sV759.81
p4615
L4144L
sV922.1
p4616
L1230L
sV054.73
p4617
L7396L
sV362.05
p4618
L1571L
sV907.9
p4619
L6763L
sV793.6
p4620
L1410L
sV191.6
p4621
L3115L
sV287.41
p4622
L2891L
sV718.82
p4623
L7483L
sV386.12
p4624
L5983L
sVV58.75
p4625
L1320L
sVE968.8
p4626
L758L
sV812.12
p4627
L7356L
sV438.13
p4628
L4142L
sV929.9
p4629
L6206L
sV760.4
p4630
L7942L
sV429.4
p4631
L2117L
sV480.8
p4632
L5168L
sV282.69
p4633
L8554L
sV375.13
p4634
L8482L
sV364.7
p4635
L7221L
sVV44.3
p4636
L149L
sV695.14
p4637
L6972L
sV656.43
p4638
L6729L
sV370.40
p4639
L3893L
sV3180
p4640
L6219L
sV917.3
p4641
L1764L
sV125.1
p4642
L5555L
sVV55.2
p4643
L5451L
sV634.71
p4644
L7516L
sV927.3
p4645
L5528L
sV786.8
p4646
L2835L
sV438.83
p4647
L1613L
sV364.77
p4648
L8209L
sV716.66
p4649
L3326L
sV315.1
p4650
L7678L
sV368.2
p4651
L2022L
sV429.0
p4652
L2787L
sV112.82
p4653
L3649L
sV675.83
p4654
L8956L
sV910.6
p4655
L6492L
sV656.60
p4656
L8760L
sV348.39
p4657
L1965L
sV524.62
p4658
L2855L
sV737.39
p4659
L317L
sV656.70
p4660
L4788L
sV372.15
p4661
L6692L
sV690.8
p4662
L3254L
sV840.7
p4663
L2379L
sVE029.2
p4664
L4490L
sV327.15
p4665
L9000L
sV437.3
p4666
L4322L
sV620.5
p4667
L3702L
sV783.40
p4668
L2046L
sV868.13
p4669
L7566L
sVV60.6
p4670
L5570L
sV747.81
p4671
L4950L
sV944.25
p4672
L6372L
sV793.5
p4673
L840L
sV721.1
p4674
L157L
sV312.34
p4675
L401L
sV803.25
p4676
L7983L
sV784.0
p4677
L39L
sV041.49
p4678
L789L
sV730.10
p4679
L3419L
sV847.9
p4680
L583L
sV718.13
p4681
L7732L
sV820.22
p4682
L4455L
sV453.79
p4683
L5343L
sV040.89
p4684
L2019L
sV600.11
p4685
L3292L
sV666.10
p4686
L8779L
sV414.07
p4687
L8147L
sV737.32
p4688
L8913L
sV289.52
p4689
L8837L
sV404.93
p4690
L5217L
sV722.52
p4691
L793L
sVE929.2
p4692
L5965L
sVV25.12
p4693
L620L
sV425.18
p4694
L3850L
sV928.01
p4695
L8446L
sV627.9
p4696
L2247L
sV702.19
p4697
L2121L
sV912.4
p4698
L4361L
sV584
p4699
L6163L
sV794.5
p4700
L437L
sV663.81
p4701
L7804L
sV750.9
p4702
L4300L
sV339.84
p4703
L7915L
sV365.62
p4704
L4078L
sV733.81
p4705
L1782L
sV996.56
p4706
L6826L
sV557.1
p4707
L2736L
sV370.49
p4708
L8998L
sV535.51
p4709
L2516L
sV627.1
p4710
L1312L
sV212.3
p4711
L3721L
sV205.10
p4712
L2842L
sV491.9
p4713
L1875L
sV873.9
p4714
L6232L
sV716.44
p4715
L5418L
sV757.1
p4716
L6025L
sV211.8
p4717
L7847L
sV596.3
p4718
L2587L
sV945.30
p4719
L5068L
sV443.21
p4720
L5723L
sV373.00
p4721
L1473L
sVV44.1
p4722
L318L
sVV85.37
p4723
L2807L
sV998.83
p4724
L1706L
sV530.12
p4725
L1578L
sV372.9
p4726
L8272L
sVV89.01
p4727
L2962L
sV342.81
p4728
L4111L
sV410.9
p4729
L7286L
sV233.32
p4730
L3042L
sV719.60
p4731
L2786L
sV339.09
p4732
L6905L
sVV63.8
p4733
L7216L
sV831.04
p4734
L4376L
sV307.44
p4735
L5297L
sV307.43
p4736
L8137L
sV839.00
p4737
L3159L
sV366.1
p4738
L8511L
sV805.7
p4739
L8718L
sV556.2
p4740
L2945L
sV223.3
p4741
L7994L
sVV25.9
p4742
L768L
sV945.20
p4743
L5631L
sV617.6
p4744
L8548L
sV378.87
p4745
L8334L
sV296.32
p4746
L640L
sVV04.8
p4747
L5852L
sV573.0
p4748
L6865L
sV945.25
p4749
L7805L
sV708.3
p4750
L3219L
sV905.9
p4751
L4547L
sV944.14
p4752
L8587L
sV806.06
p4753
L90L
sV915.8
p4754
L6355L
sV806.09
p4755
L6849L
sVV22.0
p4756
L1760L
sV442.1
p4757
L5816L
sV702.0
p4758
L1040L
sVV85.21
p4759
L3562L
sV574.10
p4760
L1532L
sV368.00
p4761
L1685L
sVV07.52
p4762
L2765L
sV860.5
p4763
L7382L
sV487.0
p4764
L4446L
sV369.0
p4765
L4677L
sV729.81
p4766
L80L
sV368.03
p4767
L2922L
sVV60.81
p4768
L3245L
sV924.21
p4769
L2172L
sV568.82
p4770
L8513L
sV967.8
p4771
L4243L
sVV72.42
p4772
L588L
sV054.12
p4773
L4440L
sV835.10
p4774
L8110L
sV291.4
p4775
L6442L
sV852.41
p4776
L8498L
sVV01.4
p4777
L5918L
sV530.86
p4778
L7937L
sV808.59
p4779
L7657L
sV983.0
p4780
L6569L
sV589.1
p4781
L3136L
sV284.2
p4782
L7416L
sV996.00
p4783
L5836L
sV273.9
p4784
L5444L
sV437.7
p4785
L3781L
sV339.85
p4786
L5825L
sVE930.5
p4787
L4596L
sV715.25
p4788
L6793L
sV011.96
p4789
L6090L
sV384.25
p4790
L6637L
sV286.7
p4791
L955L
sV676.24
p4792
L6772L
sV535.00
p4793
L1273L
sV798.9
p4794
L8818L
sV710.2
p4795
L1077L
sV748.2
p4796
L6321L
sV225.4
p4797
L3443L
sV506.2
p4798
L8099L
sVV52.4
p4799
L5869L
sV741.90
p4800
L3595L
sV919.4
p4801
L2355L
sV376.21
p4802
L4448L
sVE988.1
p4803
L3953L
sVV72.7
p4804
L8143L
sV746.84
p4805
L7893L
sVV61.20
p4806
L1971L
sV305.70
p4807
L400L
sVV87.45
p4808
L7910L
sV671.30
p4809
L7284L
sV527.3
p4810
L1340L
sV752.64
p4811
L8920L
sV793.3
p4812
L1645L
sV362.60
p4813
L6628L
sV710.0
p4814
L255L
sV659.53
p4815
L5623L
sV302.6
p4816
L6183L
sV505
p4817
L4832L
sV483.0
p4818
L3835L
sV707.8
p4819
L1568L
sVE860.3
p4820
L8318L
sV795.13
p4821
L5100L
sVV79.0
p4822
L1876L
sV958.92
p4823
L2863L
sV079.3
p4824
L3688L
sVE928.5
p4825
L7249L
sV523.01
p4826
L5151L
sV192.0
p4827
L7898L
sV038.19
p4828
L1622L
sVV85.41
p4829
L1179L
sV535.41
p4830
L1583L
sV389.08
p4831
L6830L
sV584.6
p4832
L7120L
sVE910.2
p4833
L8330L
sVE928.9
p4834
L980L
sV312.35
p4835
L8681L
sV733.09
p4836
L449L
sV296.5
p4837
L7684L
sV200.50
p4838
L6784L
sV646.60
p4839
L6253L
sV304.31
p4840
L3085L
sV330.0
p4841
L6359L
sV923.9
p4842
L32L
sV779.2
p4843
L8848L
sV477.0
p4844
L563L
sV244.8
p4845
L1252L
sV377.30
p4846
L5350L
sV944.07
p4847
L7965L
sV239.4
p4848
L4858L
sV229.9
p4849
L6434L
sV277.88
p4850
L8452L
sVV15.83
p4851
L7602L
sV724.00
p4852
L482L
sV713.5
p4853
L2047L
sVE975
p4854
L6994L
sV380.89
p4855
L6319L
sV783.9
p4856
L1822L
sV906.6
p4857
L7274L
sV726.91
p4858
L1034L
sV877.1
p4859
L162L
sV718.35
p4860
L3594L
sV227.3
p4861
L2004L
sV958.3
p4862
L1880L
sV595.4
p4863
L8323L
sV799.52
p4864
L1565L
sVV07.51
p4865
L6467L
sV188.2
p4866
L7827L
sV941.18
p4867
L3018L
sV821.11
p4868
L7392L
sV861.21
p4869
L100L
sV860.1
p4870
L7386L
sV405.99
p4871
L176L
sV787.24
p4872
L2411L
sV719.83
p4873
L7577L
sV173.59
p4874
L8997L
sV597.81
p4875
L6661L
sV215.3
p4876
L1148L
sV727.82
p4877
L4810L
sV288.59
p4878
L2187L
sV999.32
p4879
L2063L
sV140.0
p4880
L7073L
sV253.6
p4881
L1598L
sV531.31
p4882
L6143L
sVV11.3
p4883
L76L
sV381.00
p4884
L748L
sVE930.3
p4885
L4092L
sV806.60
p4886
L7161L
sV078.5
p4887
L3592L
sV633.00
p4888
L5465L
sV296.52
p4889
L732L
sVV71.5
p4890
L2111L
sV972.2
p4891
L4454L
sV427.69
p4892
L1188L
sVV49.66
p4893
L8781L
sVV61.42
p4894
L5499L
sV676.54
p4895
L8423L
sV732.0
p4896
L7146L
sVE933.8
p4897
L8299L
sVV54.10
p4898
L4947L
sV154.8
p4899
L7371L
sV873.1
p4900
L5535L
sV208.90
p4901
L2843L
sV845.12
p4902
L4888L
sV662.20
p4903
L7674L
sV922.31
p4904
L1469L
sV208.11
p4905
L2841L
sV795.52
p4906
L3008L
sV813.52
p4907
L5308L
sVV85.36
p4908
L3950L
sV603.8
p4909
L7581L
sV815.00
p4910
L1545L
sV304.62
p4911
L3635L
sV756.3
p4912
L7234L
sV786.00
p4913
L2192L
sVV73.98
p4914
L3004L
sVV15.52
p4915
L13L
sV648.04
p4916
L6341L
sV417.9
p4917
L3014L
sV663.21
p4918
L5696L
sV787.04
p4919
L5506L
sV719.64
p4920
L4886L
sV959.3
p4921
L1056L
sV695.10
p4922
L5175L
sV426.0
p4923
L210L
sV997.09
p4924
L4480L
sVV40.1
p4925
L7289L
sV718.37
p4926
L5312L
sV792.9
p4927
L2961L
sV847.2
p4928
L432L
sV692.74
p4929
L3447L
sVE939.1
p4930
L4861L
sV646.30
p4931
L2508L
sV331.7
p4932
L6221L
sV414.02
p4933
L1653L
sV442.81
p4934
L6429L
sVV21.2
p4935
L8965L
sV705.9
p4936
L168L
sVV60.0
p4937
L1219L
sV892.1
p4938
L1380L
sV274.03
p4939
L3786L
sV278.3
p4940
L4894L
sV306.9
p4941
L1879L
sV953.8
p4942
L5621L
sV378.52
p4943
L5193L
sV620.8
p4944
L3276L
sV730.27
p4945
L1375L
sV753.8
p4946
L6551L
sV272.9
p4947
L2584L
sV236.7
p4948
L6676L
sV459.33
p4949
L5394L
sV959.09
p4950
L445L
sV723.9
p4951
L937L
sV902.41
p4952
L8899L
sV295.25
p4953
L1079L
sV112.89
p4954
L4110L
sV860.3
p4955
L6243L
sV659.70
p4956
L8521L
sVV26.22
p4957
L8018L
sVE930.4
p4958
L4073L
sV296.40
p4959
L2439L
sV620.7
p4960
L8277L
sV428.20
p4961
L2066L
sV268.1
p4962
L8442L
sV811.03
p4963
L7328L
sV330.8
p4964
L2173L
sV903.01
p4965
L8503L
sV274.9
p4966
L320L
sV086.5
p4967
L6488L
sVV42.83
p4968
L7148L
sV806.8
p4969
L5620L
sV379.23
p4970
L2069L
sV382.2
p4971
L4797L
sV256.9
p4972
L5523L
sV210.1
p4973
L3253L
sV796.3
p4974
L1663L
sV518.51
p4975
L550L
sV443.89
p4976
L849L
sV057.0
p4977
L8478L
sV374.32
p4978
L751L
sV295.01
p4979
L8493L
sV258.8
p4980
L2134L
sV596.4
p4981
L3840L
sV852.21
p4982
L4074L
sV540.9
p4983
L371L
sVV02.61
p4984
L6743L
sV344.1
p4985
L94L
sV871.7
p4986
L8321L
sV173.2
p4987
L6829L
sV211.0
p4988
L4503L
sV484.1
p4989
L8297L
sV812.49
p4990
L8212L
sVV25.09
p4991
L382L
sV008.63
p4992
L7181L
sV239.89
p4993
L2215L
sVE855.6
p4994
L4145L
sV758.4
p4995
L8476L
sV361.33
p4996
L8074L
sV295.75
p4997
L6828L
sV945.16
p4998
L6413L
sVV72.83
p4999
L360L
sV755.52
p5000
L8730L
sV438.6
p5001
L5364L
sV552.00
p5002
L6840L
sV592.0
p5003
L409L
sV286.53
p5004
L2078L
sV730.88
p5005
L6108L
sVV58.30
p5006
L1995L
sVE825.0
p5007
L6115L
sV315.01
p5008
L8266L
sV743.54
p5009
L8492L
sV375.03
p5010
L7359L
sV228.01
p5011
L5381L
sV569.84
p5012
L3808L
sV813.18
p5013
L7714L
sV722.73
p5014
L2845L
sV912.8
p5015
L2782L
sV749.23
p5016
L3676L
sV537.82
p5017
L4138L
sV619.8
p5018
L5032L
sV3159
p5019
L5495L
sV527.6
p5020
L4970L
sV847.0
p5021
L82L
sV655.13
p5022
L593L
sV441.02
p5023
L4209L
sV648.24
p5024
L2260L
sV800.10
p5025
L8815L
sV339.22
p5026
L4717L
sV516.8
p5027
L1731L
sV853.05
p5028
L8680L
sV210.7
p5029
L6562L
sV941.27
p5030
L3221L
sV597.80
p5031
L2915L
sV531.30
p5032
L4638L
sV709.01
p5033
L3996L
sV749.21
p5034
L3674L
sVV20.0
p5035
L6212L
sV880.10
p5036
L3212L
sV664.90
p5037
L8667L
sV863.89
p5038
L5282L
sV362.51
p5039
L2165L
sV916.2
p5040
L3960L
sV825.21
p5041
L3614L
sV854.02
p5042
L8114L
sV655.73
p5043
L600L
sV304.92
p5044
L6578L
sV362.55
p5045
L3838L
sV370.34
p5046
L4683L
sV601.4
p5047
L7776L
sVE863.2
p5048
L9004L
sV881.00
p5049
L1344L
sV342.90
p5050
L517L
sV173.30
p5051
L4604L
sV861.31
p5052
L6241L
sV640.00
p5053
L2306L
sV864.09
p5054
L6335L
sV747.3
p5055
L8657L
sV380.00
p5056
L5574L
sV646.64
p5057
L5777L
sV140.1
p5058
L4609L
sV053.8
p5059
L4019L
sV422.92
p5060
L8594L
sVV11.4
p5061
L8199L
sV454.1
p5062
L2174L
sV642.91
p5063
L6922L
sV435.3
p5064
L5050L
sVV26.29
p5065
L7405L
sV971.2
p5066
L7655L
sVE804.0
p5067
L6097L
sV994.7
p5068
L5047L
sV659.60
p5069
L8910L
sV053.20
p5070
L6734L
sVV11.9
p5071
L741L
sV536.3
p5072
L1170L
sV365.10
p5073
L2071L
sV446.4
p5074
L4811L
sV694.3
p5075
L7514L
sVV82.5
p5076
L6258L
sV948.00
p5077
L952L
sVV45.77
p5078
L4272L
sVE824.1
p5079
L8106L
sV924.3
p5080
L2502L
sV564.01
p5081
L731L
sV369.67
p5082
L8617L
sV751.61
p5083
L8127L
sVV58.6
p5084
L7175L
sV200.85
p5085
L8225L
sV404.02
p5086
L5765L
sV968.0
p5087
L983L
sV382.02
p5088
L8155L
sVV16.3
p5089
L714L
sV795.05
p5090
L3046L
sV271.4
p5091
L2659L
sVE006.0
p5092
L4634L
sV996.68
p5093
L4921L
sV851.80
p5094
L6040L
sV302.9
p5095
L3927L
sV884.0
p5096
L4412L
sV045.90
p5097
L2207L
sV521.31
p5098
L8168L
sV369.20
p5099
L5732L
sVE888
p5100
L2456L
sV209.55
p5101
L4689L
sV658.93
p5102
L607L
sV717.83
p5103
L3887L
sV389.16
p5104
L1269L
sVV10.06
p5105
L864L
sV303.9
p5106
L5568L
sV664.81
p5107
L2969L
sV296.4
p5108
L5480L
sV998.12
p5109
L880L
sV525.11
p5110
L4252L
sV908.9
p5111
L47L
sV819.0
p5112
L3362L
sV253.8
p5113
L3806L
sV282.40
p5114
L7050L
sV304.13
p5115
L8091L
sV599.89
p5116
L6101L
sV642.93
p5117
L1807L
sV681.02
p5118
L2195L
sV732.1
p5119
L6611L
sV386.35
p5120
L7008L
sVE920.9
p5121
L5540L
sV346.13
p5122
L6998L
sV804.00
p5123
L6126L
sV344.03
p5124
L96L
sV376.89
p5125
L7100L
sV453.84
p5126
L6678L
sV730.17
p5127
L1382L
sV396.3
p5128
L2318L
sV374.41
p5129
L2667L
sV523.00
p5130
L3551L
sV788.1
p5131
L249L
sV364.00
p5132
L1367L
sV312.82
p5133
L2634L
sVV85.42
p5134
L1623L
sV377.15
p5135
L6222L
sV924.20
p5136
L1934L
sV999.31
p5137
L2569L
sV794.8
p5138
L1649L
sV386.31
p5139
L6579L
sV038.8
p5140
L4865L
sV530.20
p5141
L1257L
sV924.9
p5142
L1086L
sV279.00
p5143
L4177L
sVV60.29
p5144
L6890L
sV655.51
p5145
L6897L
sV842.01
p5146
L3515L
sV997.32
p5147
L2413L
sV360.41
p5148
L2666L
sV405.11
p5149
L4180L
sV824.7
p5150
L7094L
sV621.35
p5151
L8535L
sV674.82
p5152
L8890L
sV799.51
p5153
L2956L
sV574.20
p5154
L413L
sV784.91
p5155
L1503L
sV789.59
p5156
L656L
sV362.63
p5157
L4435L
sV737.21
p5158
L8434L
sV978.3
p5159
L3830L
sV287.2
p5160
L3813L
sV363.21
p5161
L5601L
sV576.2
p5162
L2374L
sV305.21
p5163
L1390L
sV275.02
p5164
L6404L
sV451.83
p5165
L5594L
sV401.1
p5166
L428L
sV593.82
p5167
L7166L
sV788.29
p5168
L3149L
sV812.40
p5169
L2316L
sVV01.2
p5170
L4106L
sV365.03
p5171
L2701L
sV307.41
p5172
L2250L
sVV74.1
p5173
L1883L
sV112.4
p5174
L5026L
sV380.14
p5175
L3684L
sV779.1
p5176
L7417L
sV440.22
p5177
L431L
sV289.2
p5178
L1754L
sV584.9
p5179
L316L
sV611.81
p5180
L6638L
sV614.4
p5181
L843L
sV550.92
p5182
L2185L
sV761.8
p5183
L8639L
sV378.43
p5184
L7556L
sV751.60
p5185
L8152L
sVE828.8
p5186
L7762L
sV748.5
p5187
L8002L
sV838.04
p5188
L5462L
sV656.91
p5189
L2258L
sVV51.8
p5190
L8157L
sV618.82
p5191
L851L
sV642.40
p5192
L2576L
sVE003.0
p5193
L7243L
sVV57.1
p5194
L920L
sV780.53
p5195
L1784L
sV872.01
p5196
L3156L
sV496.
p5197
L6506L
sVV28.9
p5198
L2577L
sVE925.0
p5199
L5195L
sV362.31
p5200
L5754L
sV327.01
p5201
L5939L
sV671.33
p5202
L5959L
sV453.9
p5203
L1515L
sV521.08
p5204
L4103L
sV958.4
p5205
L4005L
sV806.04
p5206
L7480L
sV214.9
p5207
L1557L
sV250.90
p5208
L1144L
sV302.1
p5209
L7995L
sV801.21
p5210
L7021L
sV300.09
p5211
L393L
sV472.0
p5212
L1513L
sV763.6
p5213
L6463L
sV642.51
p5214
L2966L
sV711.18
p5215
L4056L
sV296.3
p5216
L5479L
sV941.19
p5217
L8621L
sV802.8
p5218
L3009L
sV433.21
p5219
L5724L
sV715.98
p5220
L1106L
sVE850.3
p5221
L5800L
sV372.72
p5222
L2084L
sVV54.17
p5223
L2907L
sV916.0
p5224
L73L
sV011.80
p5225
L1386L
sV453.42
p5226
L405L
sV054.42
p5227
L1036L
sV236.3
p5228
L6396L
sV706.8
p5229
L3083L
sV099.59
p5230
L8675L
sV611.89
p5231
L494L
sV727.00
p5232
L1925L
sV388.12
p5233
L4772L
sV306.8
p5234
L4095L
sV516.69
p5235
L6724L
sVV12.79
p5236
L1655L
sV608.20
p5237
L6707L
sV446.7
p5238
L4990L
sVV18.0
p5239
L897L
sV551.8
p5240
L8072L
sV618.9
p5241
L3339L
sV680.5
p5242
L3320L
sV996.57
p5243
L8872L
sVV10.89
p5244
L2585L
sV742.2
p5245
L3484L
sV927.20
p5246
L1757L
sVE939.3
p5247
L4761L
sV794.31
p5248
L666L
sV726.10
p5249
L1032L
sVE868.9
p5250
L6892L
sV249.21
p5251
L6343L
sV814.02
p5252
L6057L
sVE828.9
p5253
L8869L
sVE909.1
p5254
L3022L
sV808.49
p5255
L2517L
sV864.01
p5256
L4537L
sV253.9
p5257
L6381L
sV911.4
p5258
L3715L
sVV23.87
p5259
L4479L
sV362.06
p5260
L2270L
sV913.8
p5261
L5898L
sV212.7
p5262
L2214L
sV893.0
p5263
L542L
sV381.01
p5264
L403L
sVV78.8
p5265
L4391L
sVV07.39
p5266
L4189L
sVE866.4
p5267
L8559L
sV820.13
p5268
L8662L
sV362.62
p5269
L8739L
sV315.02
p5270
L5189L
sV344.02
p5271
L113L
sV188.5
p5272
L7568L
sVV12.02
p5273
L2211L
sV747.31
p5274
L8100L
sVV85.33
p5275
L1304L
sV719.84
p5276
L3791L
sV716.27
p5277
L6174L
sV033.0
p5278
L7711L
sV795.5
p5279
L5633L
sVE007.1
p5280
L8583L
sV553.1
p5281
L408L
sV567.31
p5282
L4731L
sV282.0
p5283
L6542L
sV162.3
p5284
L1997L
sV304.63
p5285
L5256L
sV264.9
p5286
L7500L
sVE013.0
p5287
L3656L
sV334.9
p5288
L5432L
sV258.1
p5289
L6491L
sVV54.13
p5290
L1773L
sVE850.2
p5291
L4312L
sVV10.71
p5292
L7928L
sV349.81
p5293
L8557L
sV911.3
p5294
L8725L
sV633.11
p5295
L6854L
sV346.51
p5296
L7423L
sVE885.1
p5297
L8469L
sV211.2
p5298
L4770L
sV525.13
p5299
L4889L
sVE879.4
p5300
L7000L
sV611.4
p5301
L8881L
sV274.02
p5302
L2606L
sV634.40
p5303
L6207L
sV661.03
p5304
L6295L
sV146.8
p5305
L8249L
sV623.8
p5306
L2012L
sV723.4
p5307
L1298L
sV530.3
p5308
L1576L
sV710.9
p5309
L3861L
sVV60.8
p5310
L8954L
sV717.9
p5311
L989L
sV756.50
p5312
L6844L
sV644.10
p5313
L5694L
sV726.8
p5314
L4202L
sV355.1
p5315
L2504L
sV789.9
p5316
L1739L
sV852.00
p5317
L4618L
sVV42.1
p5318
L4529L
sV736.06
p5319
L7109L
sV712.26
p5320
L7896L
sV346.90
p5321
L306L
sV289.0
p5322
L273L
sV716.24
p5323
L8519L
sV634.10
p5324
L4553L
sV362.81
p5325
L2334L
sV379.99
p5326
L3218L
sV791.9
p5327
L1253L
sV973.8
p5328
L6519L
sV733.92
p5329
L3269L
sV110.9
p5330
L3217L
sV315
p5331
L4781L
sV215.2
p5332
L6754L
sV720.1
p5333
L2150L
sV298.8
p5334
L744L
sV642.30
p5335
L2253L
sV943.25
p5336
L4806L
sV366.02
p5337
L3563L
sV001.0
p5338
L6879L
sV054.13
p5339
L8849L
sV555.1
p5340
L4432L
sV314.1
p5341
L3201L
sV319.0
p5342
L6027L
sV711.03
p5343
L8770L
sV518.82
p5344
L123L
sV342.11
p5345
L5989L
sV238.71
p5346
L1233L
sV782.4
p5347
L2276L
sV423.2
p5348
L7495L
sV823.81
p5349
L2923L
sV295.90
p5350
L1070L
sV333.72
p5351
L3141L
sV426.53
p5352
L2216L
sV353.0
p5353
L1781L
sV952.14
p5354
L6390L
sVE854.3
p5355
L2867L
sV836.54
p5356
L8291L
sV388.72
p5357
L5160L
sV758.31
p5358
L3204L
sV556.1
p5359
L4259L
sVE920.5
p5360
L5122L
sV581.1
p5361
L5335L
sV336.3
p5362
L5380L
sV532.90
p5363
L1577L
sV385.00
p5364
L4606L
sVV10.60
p5365
L3645L
sV518.0
p5366
L19L
sV530.6
p5367
L1853L
sV403.10
p5368
L1674L
sV275.1
p5369
L6557L
sV277.5
p5370
L2394L
sV362.54
p5371
L435L
sV712.93
p5372
L8752L
sV596.8
p5373
L4112L
sV656.71
p5374
L3284L
sVE876.9
p5375
L7712L
sV655.81
p5376
L5773L
sV569.2
p5377
L7686L
sV878.5
p5378
L7617L
sV905.1
p5379
L2162L
sV728.82
p5380
L5387L
sV287.0
p5381
L4231L
sV719.87
p5382
L3788L
sV760.71
p5383
L2994L
sV501
p5384
L3060L
sV205.00
p5385
L2846L
sV903.8
p5386
L8502L
sV730.24
p5387
L5634L
sV353.9
p5388
L5980L
sV745.69
p5389
L8177L
sV370.35
p5390
L6614L
sV323.02
p5391
L6654L
sV726.13
p5392
L1140L
sVV54.27
p5393
L2368L
sV471.0
p5394
L2761L
sV919.9
p5395
L9014L
sV537.2
p5396
L7582L
sV532.00
p5397
L7560L
sV945.05
p5398
L7662L
sV434.91
p5399
L186L
sV667.02
p5400
L8488L
sV717.6
p5401
L3929L
sV585.2
p5402
L1028L
sV212.1
p5403
L6774L
sV528.00
p5404
L2528L
sVE849.1
p5405
L8955L
sV371.43
p5406
L7253L
sV716.19
p5407
L7330L
sV616.89
p5408
L1135L
sVE970
p5409
L8790L
sV428.31
p5410
L2902L
sV974.3
p5411
L2984L
sV723.0
p5412
L247L
sV743.30
p5413
L6961L
sV372.53
p5414
L7809L
sV717.5
p5415
L2466L
sV536.41
p5416
L5425L
sV998.89
p5417
L2330L
sV995.63
p5418
L3846L
sVE933.1
p5419
L3128L
sV754.82
p5420
L5990L
sV377.11
p5421
L6220L
sV327.00
p5422
L1359L
sVV87.46
p5423
L681L
sV730.97
p5424
L4521L
sV621.8
p5425
L2101L
sV323.71
p5426
L5199L
sV033.9
p5427
L5388L
sV298.34
p5428
L4859L
sV388.8
p5429
L4875L
sVV15.49
p5430
L8626L
sV307.9
p5431
L522L
sV618.3
p5432
L2698L
sV255.10
p5433
L6386L
sV111.1
p5434
L5644L
sV230.6
p5435
L5225L
sV370.00
p5436
L5150L
sV614.5
p5437
L7529L
sV284.89
p5438
L4735L
sVE937.0
p5439
L8172L
sV806.01
p5440
L98L
sV813.33
p5441
L7329L
sV647.60
p5442
L6158L
sV717.41
p5443
L5488L
sVV45.74
p5444
L8301L
sV574.01
p5445
L5496L
sV558.1
p5446
L6292L
sVE016.9
p5447
L7252L
sV239.0
p5448
L2217L
sV150.9
p5449
L4413L
sV753.14
p5450
L8806L
sVV15.51
p5451
L496L
sV218.9
p5452
L2299L
sVE849.3
p5453
L2313L
sV478.74
p5454
L3754L
sV369.01
p5455
L7463L
sV456.21
p5456
L2179L
sVV73.3
p5457
L8279L
sV362.30
p5458
L5533L
sVE950.7
p5459
L6237L
sV344.01
p5460
L95L
sV833.04
p5461
L7420L
sV742.8
p5462
L7461L
sV361.00
p5463
L4308L
sV296.04
p5464
L4070L
sV733.94
p5465
L3514L
sV948.11
p5466
L7271L
sV870.2
p5467
L4399L
sV712.21
p5468
L6444L
sV440.21
p5469
L2523L
sV032.89
p5470
L8353L
sV377.32
p5471
L8729L
sV813.05
p5472
L5826L
sV787.91
p5473
L209L
sV780.02
p5474
L978L
sVE006.1
p5475
L2928L
sV139.0
p5476
L8969L
sV288.2
p5477
L4053L
sV711.19
p5478
L8795L
sV369.9
p5479
L1472L
sV303.02
p5480
L2274L
sV456.4
p5481
L4496L
sV255.14
p5482
L6864L
sV770.5
p5483
L6715L
sV692.76
p5484
L4487L
sV655.03
p5485
L3190L
sV302.2
p5486
L7701L
sV786.1
p5487
L3599L
sV237.70
p5488
L3930L
sV701.8
p5489
L3619L
sV745.2
p5490
L3629L
sV120.0
p5491
L7779L
sV906.9
p5492
L7691L
sV151.4
p5493
L5916L
sV295.73
p5494
L4642L
sV174.9
p5495
L242L
sV863.90
p5496
L7195L
sV250
p5497
L8776L
sVV45.1
p5498
L8944L
sV784.1
p5499
L2199L
sV298.1
p5500
L5179L
sV939.0
p5501
L4699L
sVE013.9
p5502
L4953L
sV660.41
p5503
L3087L
sV280.8
p5504
L2293L
sVV49.0
p5505
L5109L
sVV77.6
p5506
L6050L
sV250.30
p5507
L965L
sV110.0
p5508
L3550L
sV635.90
p5509
L6667L
sV483.8
p5510
L4422L
sV285.21
p5511
L802L
sV433.90
p5512
L5551L
sVV58.74
p5513
L3570L
sV924.01
p5514
L756L
sV618.04
p5515
L1112L
sV049.8
p5516
L7728L
sV138
p5517
L2213L
sV337.1
p5518
L1891L
sV295.00
p5519
L2139L
sV587
p5520
L1046L
sVV25.40
p5521
L2993L
sVE945.2
p5522
L5940L
sV806.27
p5523
L7874L
sV381.04
p5524
L5399L
sV642.34
p5525
L6686L
sV956.5
p5526
L6698L
sVE942.0
p5527
L4927L
sV784.99
p5528
L1514L
sV099.41
p5529
L6334L
sV302.89
p5530
L8007L
sV238.77
p5531
L4850L
sV942.00
p5532
L7272L
sV354.4
p5533
L4698L
sV493.11
p5534
L6410L
sV510.0
p5535
L5082L
sV380.22
p5536
L2746L
sV642.00
p5537
L7046L
sVE905.1
p5538
L2467L
sVV12.2
p5539
L7300L
sV755.32
p5540
L7315L
sV920
p5541
L86L
sV275.42
p5542
L468L
sV713.0
p5543
L6670L
sV314.51
p5544
L1268L
sV364.03
p5545
L8495L
sV596.54
p5546
L110L
sV484.8
p5547
L5344L
sV281.0
p5548
L1438L
sV738.5
p5549
L3133L
sV825.25
p5550
L1092L
sV315.8
p5551
L2171L
sVV85.38
p5552
L1905L
sV999.80
p5553
L3410L
sV780.0
p5554
L5327L
sVV64.05
p5555
L4931L
sV281.4
p5556
L2892L
sV305.43
p5557
L6374L
sV854.05
p5558
L8150L
sV800.02
p5559
L7698L
sV032.9
p5560
L6318L
sVE879.1
p5561
L4022L
sV757.31
p5562
L7839L
sV296.02
p5563
L4283L
sV200.48
p5564
L6825L
sV997.72
p5565
L7518L
sV754.2
p5566
L5183L
sVV01.6
p5567
L323L
sV379.21
p5568
L5L
sV364.41
p5569
L6287L
sV674.34
p5570
L1530L
sV617.4
p5571
L8320L
sV669.70
p5572
L6254L
sV041.4
p5573
L2586L
sV560.39
p5574
L4268L
sVV83.89
p5575
L5867L
sV729.4
p5576
L1343L
sV299.8
p5577
L6229L
sV478.6
p5578
L3719L
sV649.61
p5579
L7430L
sVV10.61
p5580
L5437L
sV774.6
p5581
L2037L
sV719.85
p5582
L4082L
sV320.2
p5583
L5791L
sV715
p5584
L2451L
sV011.92
p5585
L7524L
sV375.89
p5586
L7361L
sVV40.0
p5587
L2169L
sV622.0
p5588
L7851L
sV715.89
p5589
L1052L
sV423.1
p5590
L5742L
sV848.5
p5591
L6689L
sVE935.6
p5592
L6366L
sVV19.5
p5593
L6331L
sV580.9
p5594
L3032L
sV153.5
p5595
L8393L
sV255.0
p5596
L5412L
sV199.2
p5597
L7149L
sV464.00
p5598
L2290L
sV860.0
p5599
L816L
sVE965.0
p5600
L7540L
sV726.11
p5601
L2000L
sV379.31
p5602
L4562L
sV314.01
p5603
L1263L
sV759.2
p5604
L8763L
sV998.51
p5605
L4558L
sV377.31
p5606
L7629L
sV302.73
p5607
L5646L
sV788.63
p5608
L1811L
sV787.1
p5609
L1098L
sV433.80
p5610
L5950L
sV623.9
p5611
L2228L
sV724.5
p5612
L240L
sV788.42
p5613
L1441L
sV753.0
p5614
L948L
sV371.10
p5615
L8907L
sV611.1
p5616
L492L
sV832.01
p5617
L3475L
sV873.52
p5618
L6457L
sV315.9
p5619
L207L
sV905.8
p5620
L3265L
sV345.10
p5621
L1334L
sV447.4
p5622
L4718L
sV813.14
p5623
L4726L
sV295.92
p5624
L3420L
sVV39.00
p5625
L8292L
sV197.5
p5626
L852L
sV711.06
p5627
L1711L
sV716.26
p5628
L6675L
sV375.41
p5629
L7948L
sV991.9
p5630
L6166L
sV235.9
p5631
L6464L
sVV15.04
p5632
L1871L
sV610.2
p5633
L4907L
sV537.0
p5634
L4864L
sV864.14
p5635
L5280L
sV275.41
p5636
L500L
sV598.8
p5637
L1277L
sV821.21
p5638
L1938L
sV360.43
p5639
L6067L
sV840.4
p5640
L1074L
sV269.2
p5641
L271L
sV462
p5642
L622L
sV711.97
p5643
L8589L
sV491.20
p5644
L358L
sV111.9
p5645
L2051L
sV779.9
p5646
L6771L
sV338.4
p5647
L804L
sV377.03
p5648
L7745L
sVV49.3
p5649
L5922L
sV942.32
p5650
L8694L
sV198.5
p5651
L1998L
sV326
p5652
L5951L
sV519.9
p5653
L545L
sV906.4
p5654
L4506L
sV693.0
p5655
L2053L
sV659.83
p5656
L4472L
sVV55.5
p5657
L2988L
sV608.87
p5658
L6356L
sVV53.32
p5659
L2365L
sV292.12
p5660
L4365L
sV302.75
p5661
L2913L
sV805.4
p5662
L826L
sV917.8
p5663
L2320L
sV376.50
p5664
L5017L
sV671.21
p5665
L5690L
sV362.10
p5666
L3229L
sV282.7
p5667
L4630L
sV904.1
p5668
L8889L
sV438.0
p5669
L74L
sVV89.05
p5670
L5265L
sV738.8
p5671
L905L
sV253.7
p5672
L3134L
sV296.12
p5673
L5883L
sV959.8
p5674
L3001L
sV374.13
p5675
L5077L
sV944.00
p5676
L7115L
sV780.64
p5677
L1657L
sV873.64
p5678
L6759L
sV041.86
p5679
L419L
sV296.26
p5680
L6555L
sV867.9
p5681
L7257L
sV669.82
p5682
L8015L
sVV13.24
p5683
L7527L
sV716.17
p5684
L3512L
sV331.0
p5685
L284L
sV611.72
p5686
L1127L
sVV61.41
p5687
L6798L
sV301.12
p5688
L6020L
sV747.0
p5689
L8634L
sV389.17
p5690
L2402L
sV070.21
p5691
L8951L
sV705.1
p5692
L3951L
sV839.01
p5693
L7276L
sV660.61
p5694
L5705L
sV738.10
p5695
L6201L
sV615.9
p5696
L2297L
sV339.10
p5697
L1408L
sV854.01
p5698
L5143L
sVV42.7
p5699
L4060L
sV224.9
p5700
L7141L
sVE919.0
p5701
L6539L
sV535.31
p5702
L2481L
sV751.4
p5703
L6874L
sV456.3
p5704
L4198L
sV035
p5705
L7819L
sV794.17
p5706
L8832L
sV727.51
p5707
L1721L
sV653.13
p5708
L1804L
sV731.0
p5709
L451L
sV142.0
p5710
L4335L
sV873.53
p5711
L6385L
sV998.30
p5712
L1705L
sV305.00
p5713
L45L
sV923.03
p5714
L23L
sVE917.3
p5715
L3775L
sV815.14
p5716
L6767L
sV259.1
p5717
L3558L
sV429.79
p5718
L5363L
sV279.11
p5719
L6077L
sVV12.51
p5720
L1510L
sV129
p5721
L7341L
sV309.83
p5722
L4469L
sV367.21
p5723
L565L
sV741.03
p5724
L6903L
sV334.3
p5725
L20L
sV722.4
p5726
L1160L
sVV14.9
p5727
L3690L
sV214.3
p5728
L504L
sV644.03
p5729
L784L
sV715.21
p5730
L6688L
sV943.21
p5731
L6973L
sV595.82
p5732
L7071L
sVV12.53
p5733
L5341L
sV652.00
p5734
L8113L
sV835.11
p5735
L7957L
sV654.12
p5736
L5617L
sV287.30
p5737
L3263L
sV365.74
p5738
L3398L
sV304.22
p5739
L6984L
sVE934.7
p5740
L8344L
sVV85.52
p5741
L6792L
sV147.0
p5742
L5904L
sV935.2
p5743
L5019L
sV618.02
p5744
L6770L
sV996.02
p5745
L5755L
sV943.13
p5746
L7345L
sV746.83
p5747
L7316L
sVV69.9
p5748
L3352L
sVV82.81
p5749
L470L
sV385.30
p5750
L3948L
sVV72.11
p5751
L4930L
sV722.92
p5752
L4141L
sVE905.9
p5753
L5295L
sV945.09
p5754
L5721L
sVE007.3
p5755
L3697L
sVV26.51
p5756
L1860L
sV041.81
p5757
L2932L
sV191.2
p5758
L6527L
sV453.87
p5759
L5385L
sV729.6
p5760
L1053L
sV691.8
p5761
L1067L
sV788.3
p5762
L7212L
sV730.09
p5763
L5926L
sV878.8
p5764
L8254L
sV357.3
p5765
L6573L
sV646.83
p5766
L598L
sV361.2
p5767
L3281L
sV253.5
p5768
L4838L
sVE848
p5769
L7061L
sV658.21
p5770
L3502L
sVV64.2
p5771
L1166L
sV873.63
p5772
L4453L
sV005.9
p5773
L2738L
sV451.2
p5774
L3103L
sV655.43
p5775
L7406L
sV692.5
p5776
L3911L
sV305.1
p5777
L236L
sV652.63
p5778
L5173L
sVE957.9
p5779
L6559L
sV629.32
p5780
L7917L
sV448.1
p5781
L3107L
sV914.0
p5782
L800L
sV718.47
p5783
L921L
sV952.3
p5784
L6094L
sV215.0
p5785
L6017L
sVV13.4
p5786
L2726L
sVE931.0
p5787
L4042L
sV585.3
p5788
L675L
sV376.00
p5789
L7828L
sV975.0
p5790
L7493L
sV864.15
p5791
L6242L
sV294.11
p5792
L1597L
sV992.1
p5793
L6642L
sV765.0
p5794
L8003L
sV333.93
p5795
L7649L
sVV53.09
p5796
L4892L
sV246.8
p5797
L2696L
sV852.30
p5798
L6690L
sV746.3
p5799
L4207L
sV379.19
p5800
L8917L
sV860.4
p5801
L819L
sV707.20
p5802
L2472L
sV287.49
p5803
L534L
sVV17.6
p5804
L7940L
sV361.02
p5805
L8343L
sV114.5
p5806
L7225L
sV884.1
p5807
L6072L
sV805.01
p5808
L7295L
sV865.00
p5809
L5286L
sV682.1
p5810
L912L
sV844.9
p5811
L651L
sV374.10
p5812
L5097L
sV878.0
p5813
L6942L
sV362.32
p5814
L3290L
sV790.2
p5815
L7153L
sV653.63
p5816
L7588L
sV969.6
p5817
L703L
sV309.0
p5818
L234L
sVE947.8
p5819
L3868L
sV715.92
p5820
L2764L
sV256.39
p5821
L4937L
sV634.00
p5822
L8496L
sV235.1
p5823
L6574L
sV892.2
p5824
L4524L
sV038.9
p5825
L687L
sV621.4
p5826
L5988L
sV863.53
p5827
L7323L
sV379.52
p5828
L7643L
sV757.39
p5829
L1914L
sV204.00
p5830
L3639L
sV994.6
p5831
L4974L
sVE929.3
p5832
L1016L
sV295.94
p5833
L2480L
sV595.9
p5834
L1798L
sV711.63
p5835
L7333L
sV281.1
p5836
L201L
sV593.70
p5837
L3470L
sV173.39
p5838
L5708L
sV375.30
p5839
L6633L
sV611.82
p5840
L5731L
sVV36.2
p5841
L7692L
sV426.9
p5842
L1479L
sV640.80
p5843
L8993L
sVV15.06
p5844
L2208L
sV624.4
p5845
L5512L
sV290.40
p5846
L1895L
sV791.6
p5847
L2908L
sV649.50
p5848
L6127L
sV619.2
p5849
L7863L
sV425.11
p5850
L3945L
sVV01.84
p5851
L3540L
sV531.90
p5852
L1825L
sVV65.8
p5853
L3267L
sV804.5
p5854
L8999L
sV410.92
p5855
L3827L
sV361.10
p5856
L3979L
sV148.1
p5857
L8750L
sV998.4
p5858
L5288L
sV648.92
p5859
L6873L
sV232.4
p5860
L8700L
sV310.0
p5861
L1974L
sV276.3
p5862
L1989L
sVV43.5
p5863
L8664L
sV414.11
p5864
L2418L
sV250.81
p5865
L3390L
sVE945.5
p5866
L7713L
sV851.23
p5867
L9028L
sV665.51
p5868
L6594L
sV369.61
p5869
L6501L
sV366.01
p5870
L5815L
sV713.2
p5871
L6811L
sV296.13
p5872
L7962L
sVV71.4
p5873
L722L
sV251.4
p5874
L8708L
sV727.9
p5875
L2654L
sV842.19
p5876
L4451L
sVE870.8
p5877
L4945L
sV514
p5878
L934L
sVV13.7
p5879
L3588L
sV719.91
p5880
L4067L
sV173.11
p5881
L4482L
sVE884.4
p5882
L2492L
sV327.32
p5883
L4841L
sV550.11
p5884
L7590L
sV639.0
p5885
L7601L
sV428.43
p5886
L1928L
sV533.70
p5887
L5728L
sVV90.89
p5888
L1129L
sV765.04
p5889
L8058L
sVE963
p5890
L3865L
sV512.89
p5891
L811L
sV753.21
p5892
L3638L
sV385.01
p5893
L6503L
sV214.4
p5894
L6543L
sV368.32
p5895
L7528L
sV191.3
p5896
L9013L
sV949.0
p5897
L960L
sV712.35
p5898
L7167L
sV364.05
p5899
L4165L
sV780.1
p5900
L1231L
sVV12.50
p5901
L2619L
sV995.0
p5902
L1950L
sVE924.0
p5903
L4369L
sV805.3
p5904
L7873L
sV744.03
p5905
L5858L
sVV13.3
p5906
L5408L
sV726.70
p5907
L2050L
sV535.5
p5908
L5888L
sV164.8
p5909
L8052L
sV821.23
p5910
L3575L
sV379.25
p5911
L4825L
sVV49.85
p5912
L8536L
sV491.1
p5913
L3000L
sV300.19
p5914
L5123L
sV437.9
p5915
L1601L
sV304.02
p5916
L5021L
sV451.9
p5917
L1999L
sV388.2
p5918
L3228L
sV202.60
p5919
L8771L
sV296.11
p5920
L8983L
sV913.0
p5921
L1831L
sV748.9
p5922
L6454L
sV200.10
p5923
L7353L
sVV72.61
p5924
L5776L
sV705.0
p5925
L3173L
sV378.40
p5926
L7578L
sV292.11
p5927
L5716L
sV995.90
p5928
L520L
sV216.2
p5929
L7881L
sV820.19
p5930
L6322L
sVV13.5
p5931
L6256L
sV327.02
p5932
L3193L
sV289.84
p5933
L3829L
sV478.0
p5934
L1751L
sV304.00
p5935
L252L
sVV62.0
p5936
L3560L
sV843.1
p5937
L7850L
sV648.13
p5938
L601L
sVV87.09
p5939
L3549L
sVV85.25
p5940
L2350L
sV961.0
p5941
L6978L
sV945.06
p5942
L8267L
sVV62.6
p5943
L3885L
sV314.9
p5944
L2752L
sV872.02
p5945
L8839L
sV608.83
p5946
L297L
sV366.04
p5947
L3694L
sVE861.3
p5948
L8046L
sV366.41
p5949
L5236L
sV936
p5950
L1011L
sV525.8
p5951
L4660L
sV612.0
p5952
L5870L
sV094.1
p5953
L7532L
sV200.24
p5954
L8651L
sV745.60
p5955
L8178L
sV810.02
p5956
L4501L
sV306.3
p5957
L6928L
sVV72.2
p5958
L31L
sV572.4
p5959
L2183L
sV660.01
p5960
L4789L
sV521.02
p5961
L4404L
sV962.3
p5962
L964L
sV735.0
p5963
L484L
sV781.8
p5964
L2803L
sV212.6
p5965
L8089L
sV736.29
p5966
L5463L
sV870.3
p5967
L8154L
sV271.8
p5968
L6845L
sV707.01
p5969
L4306L
sV365.72
p5970
L1573L
sV827.1
p5971
L7834L
sV594.9
p5972
L2990L
sV754.50
p5973
L8390L
sV996.70
p5974
L7342L
sV389.9
p5975
L1137L
sV958.99
p5976
L8394L
sV553.8
p5977
L2676L
sV755.30
p5978
L7977L
sV282.44
p5979
L8192L
sV945.31
p5980
L9010L
sV319.01
p5981
L3611L
sV582.2
p5982
L4157L
sV716.20
p5983
L6516L
sV516.3
p5984
L7864L
sV550.93
p5985
L8698L
sV323.82
p5986
L6382L
sV921.0
p5987
L4874L
sV429.2
p5988
L1022L
sV031.2
p5989
L4018L
sV362.42
p5990
L8035L
sV579.8
p5991
L2193L
sV812.42
p5992
L5681L
sV478.29
p5993
L3718L
sV369.3
p5994
L4377L
sV784.92
p5995
L1660L
sV378.01
p5996
L3118L
sV944.30
p5997
L7269L
sVV30.00
p5998
L4484L
sV886.0
p5999
L874L
sV389.8
p6000
L5521L
sV333.81
p6001
L765L
sV203.01
p6002
L7334L
sV800.00
p6003
L4017L
sV840.8
p6004
L1138L
sV798.0
p6005
L5793L
sV626.7
p6006
L5181L
sV719.00
p6007
L1913L
sV444.22
p6008
L1610L
sV784.60
p6009
L3964L
sVV54.09
p6010
L1633L
sV942.12
p6011
L4827L
sV649.51
p6012
L6053L
sV616.0
p6013
L1395L
sV801.50
p6014
L8816L
sVE959
p6015
L1401L
sV780.65
p6016
L4415L
sV443.1
p6017
L3843L
sV865.02
p6018
L7366L
sV277.39
p6019
L5531L
sV660.91
p6020
L7135L
sV607.3
p6021
L97L
sV646.41
p6022
L8231L
sV716.96
p6023
L34L
sV793.0
p6024
L1799L
sV250.11
p6025
L5126L
sVV76.43
p6026
L3854L
sV722.83
p6027
L1151L
sV625.9
p6028
L378L
sV780.79
p6029
L112L
sV833.00
p6030
L7107L
sV244.1
p6031
L3248L
sV426.3
p6032
L2222L
sV200.31
p6033
L6823L
sV569.5
p6034
L5084L
sVE816.7
p6035
L7293L
sV371.12
p6036
L1856L
sV658.41
p6037
L2346L
sV519.02
p6038
L3753L
sV211.9
p6039
L7332L
sV346.91
p6040
L2636L
sV718.56
p6041
L3980L
sV930.0
p6042
L2553L
sV793.82
p6043
L1434L
sV362.9
p6044
L5107L
sV282.60
p6045
L5604L
sV335.9
p6046
L7772L
sV743.61
p6047
L7507L
sV388.43
p6048
L6084L
sVV43.22
p6049
L8146L
sV488.01
p6050
L5945L
sV346.23
p6051
L3981L
sV410.02
p6052
L7941L
sV719.67
p6053
L5127L
sV812.43
p6054
L4378L
sV729.90
p6055
L2148L
sV674.10
p6056
L4734L
sV313.3
p6057
L1276L
sV461.3
p6058
L3400L
sV997.69
p6059
L2331L
sV296.60
p6060
L1746L
sV284.12
p6061
L7456L
sV516.63
p6062
L8444L
sV304.73
p6063
L5255L
sV296.30
p6064
L712L
sV444.89
p6065
L3890L
sV282.46
p6066
L7961L
sV521.11
p6067
L7265L
sVV82.89
p6068
L1517L
sVV89.09
p6069
L6439L
sV873.23
p6070
L8080L
sV692.71
p6071
L2339L
sV335.21
p6072
L5093L
sVE901.9
p6073
L5910L
sVV84.02
p6074
L5140L
sV942.04
p6075
L8685L
sV637.30
p6076
L8125L
sV130.2
p6077
L5879L
sV072.9
p6078
L7923L
sV270.7
p6079
L4587L
sV269.9
p6080
L2459L
sV718.50
p6081
L8064L
sV726.19
p6082
L1542L
sV300.13
p6083
L7339L
sV345.80
p6084
L25L
sV369.76
p6085
L6624L
sV999.9
p6086
L4021L
sV567.0
p6087
L8197L
sV372.43
p6088
L8223L
sV339.12
p6089
L4293L
sV524.69
p6090
L3444L
sV786.4
p6091
L2630L
sV512.8
p6092
L5031L
sV751.62
p6093
L5853L
sV344.81
p6094
L5949L
sV668.01
p6095
L8932L
sVV72.81
p6096
L488L
sV425.0
p6097
L6170L
sV719.89
p6098
L3993L
sV707.21
p6099
L2673L
sV373.8
p6100
L7497L
sVE917.4
p6101
L1221L
sV518.53
p6102
L155L
sV524.00
p6103
L6548L
sV727.68
p6104
L3624L
sV571.9
p6105
L1331L
sV299.90
p6106
L4284L
sVV76.0
p6107
L4003L
sV453.6
p6108
L3407L
sV719.56
p6109
L1425L
sV402.01
p6110
L4646L
sV782.9
p6111
L1003L
sV007.1
p6112
L5597L
sV585.6
p6113
L660L
sV718.54
p6114
L7573L
sV905.4
p6115
L1816L
sV301.9
p6116
L739L
sV919.6
p6117
L1189L
sV634.91
p6118
L3311L
sV528.9
p6119
L707L
sV252.08
p6120
L2519L
sV209.29
p6121
L3745L
sV781.1
p6122
L3493L
sV295.30
p6123
L1695L
sV996.72
p6124
L1286L
sVE920
p6125
L8562L
sVV10.00
p6126
L6658L
sV482.0
p6127
L3382L
sV275.3
p6128
L945L
sV367.53
p6129
L5624L
sVV01.9
p6130
L4240L
sV171.5
p6131
L7370L
sV755.35
p6132
L7314L
sV802.20
p6133
L5664L
sV521.06
p6134
L8251L
sV170.0
p6135
L7369L
sV202.81
p6136
L6752L
sV3439
p6137
L7185L
sVV80.3
p6138
L5797L
sV300.4
p6139
L711L
sV368.12
p6140
L5817L
sV756.15
p6141
L2949L
sV532.10
p6142
L4923L
sV853.02
p6143
L8961L
sV250.91
p6144
L1149L
sV528.4
p6145
L4039L
sV681.11
p6146
L1039L
sV789.44
p6147
L4433L
sV568.9
p6148
L7853L
sV331.9
p6149
L18L
sV593.3
p6150
L3070L
sV478.20
p6151
L1702L
sV625.0
p6152
L628L
sV637.11
p6153
L4814L
sV718.89
p6154
L7486L
sV273.8
p6155
L942L
sV747.20
p6156
L4043L
sV806.00
p6157
L4682L
sV039.2
p6158
L7193L
sV153.0
p6159
L6659L
sV795.39
p6160
L6073L
sVE864.3
p6161
L8213L
sV567.81
p6162
L5452L
sV923.3
p6163
L3698L
sV097.9
p6164
L5056L
sV404.03
p6165
L4763L
sV349.89
p6166
L2526L
sV618.81
p6167
L6742L
sV799.
p6168
L4620L
sV453.50
p6169
L3408L
sV362.14
p6170
L6022L
sV755.67
p6171
L4712L
sV521.89
p6172
L4510L
sV474.10
p6173
L892L
sV850.12
p6174
L7734L
sVV88.21
p6175
L4549L
sVV76.2
p6176
L292L
sVV60.4
p6177
L3331L
sVV60.2
p6178
L641L
sV300.3
p6179
L738L
sVV87.39
p6180
L6549L
sV759.5
p6181
L3832L
sV721.3
p6182
L416L
sV041.00
p6183
L2639L
sV368.01
p6184
L3916L
sV271.1
p6185
L8342L
sV634.92
p6186
L1406L
sV754.60
p6187
L4711L
sVE850.0
p6188
L2895L
sV123.4
p6189
L5167L
sV016.00
p6190
L7198L
sV370.03
p6191
L2198L
sV516.36
p6192
L8893L
sV047.9
p6193
L6352L
sVV67.1
p6194
L5683L
sV334.1
p6195
L3597L
sV530.85
p6196
L1095L
sV713.8
p6197
L6852L
sV663.31
p6198
L2581L
sV872.69
p6199
L8551L
sVV41.7
p6200
L8040L
sV288.04
p6201
L2180L
sV204.10
p6202
L2470L
sV912.6
p6203
L4595L
sV183.5
p6204
L8640L
sV783.5
p6205
L1440L
sV722.11
p6206
L2912L
sV927.03
p6207
L7653L
sV375.00
p6208
L7358L
sV739.5
p6209
L4027L
sV658.10
p6210
L5316L
sV371.52
p6211
L6085L
sV493.00
p6212
L1265L
sV738.0
p6213
L3988L
sV242.80
p6214
L1688L
sV543.9
p6215
L4566L
sV530.89
p6216
L1097L
sV664.20
p6217
L5174L
sV995.61
p6218
L6655L
sV995.82
p6219
L7130L
sV664.41
p6220
L8361L
sV493.01
p6221
L4340L
sV738.11
p6222
L8835L
sV752.36
p6223
L8088L
sV730.16
p6224
L1813L
sV737.34
p6225
L5340L
sVV19.2
p6226
L7840L
sV346.40
p6227
L4760L
sV410.90
p6228
L1600L
sVV84.03
p6229
L8368L
sV780.61
p6230
L1451L
sV300.16
p6231
L3871L
sV634.90
p6232
L3308L
sV618.89
p6233
L3340L
sV808.9
p6234
L4006L
sV350.1
p6235
L1846L
sV755.55
p6236
L3582L
sV970.9
p6237
L8028L
sV709.4
p6238
L1373L
sV881.01
p6239
L1917L
sV839.41
p6240
L7933L
sV625.6
p6241
L850L
sVV60.9
p6242
L4436L
sV785.4
p6243
L509L
sV277.03
p6244
L8606L
sV215.8
p6245
L4679L
sV800.40
p6246
L4385L
sV286.9
p6247
L801L
sV250.23
p6248
L2271L
sV716.98
p6249
L1397L
sV405.01
p6250
L3552L
sV282.3
p6251
L6504L
sV753.19
p6252
L699L
sV782.8
p6253
L2138L
sV952.08
p6254
L8972L
sV780.58
p6255
L4170L
sV620.3
p6256
L5142L
sV083.0
p6257
L3160L
sV880.03
p6258
L4739L
sV344.40
p6259
L3415L
sV744.47
p6260
L7682L
sV733.15
p6261
L4659L
sV821.20
p6262
L1939L
sV749.24
p6263
L3675L
sV637.91
p6264
L3309L
sV682.5
p6265
L831L
sV995.51
p6266
L4277L
sV747.49
p6267
L8785L
sV996.71
p6268
L8628L
sV242.01
p6269
L6209L
sV524.82
p6270
L7509L
sV344.2
p6271
L7479L
sV659.23
p6272
L8134L
sV296.33
p6273
L530L
sV719.21
p6274
L6586L
sV714.81
p6275
L5881L
sV589.9
p6276
L4225L
sV812.41
p6277
L2315L
sV338.29
p6278
L327L
sV958.2
p6279
L6071L
sV383.1
p6280
L4613L
sV724.79
p6281
L3494L
sV737.8
p6282
L4408L
sV964.2
p6283
L1283L
sV428.30
p6284
L1680L
sV562.00
p6285
L1580L
sV712.30
p6286
L4319L
sV480.0
p6287
L5943L
sV727.62
p6288
L3381L
sV656.80
p6289
L5811L
sV736.73
p6290
L8151L
sV996.01
p6291
L2541L
sV730.26
p6292
L1704L
sV368.15
p6293
L4707L
sV474.01
p6294
L7811L
sV524.63
p6295
L4063L
sV238.75
p6296
L2123L
sV755.38
p6297
L7224L
sV315.00
p6298
L2045L
sV211.1
p6299
L1916L
sV227.8
p6300
L7414L
sV389.12
p6301
L2499L
sV807.03
p6302
L54L
sVE811.9
p6303
L7572L
sV758.6
p6304
L8024L
sV292.85
p6305
L1930L
sV432.0
p6306
L6909L
sV036.2
p6307
L8448L
sV478.75
p6308
L5750L
sV726.12
p6309
L2232L
sVV10.07
p6310
L6228L
sV441.00
p6311
L1994L
sV761.2
p6312
L2032L
sV209.30
p6313
L8222L
sV721.0
p6314
L477L
sVE882
p6315
L2469L
sV382.4
p6316
L3513L
sV987.8
p6317
L5501L
sV300.00
p6318
L139L
sV599.60
p6319
L668L
sV114.2
p6320
L5079L
sV364.11
p6321
L8175L
sV795.71
p6322
L2446L
sV350.9
p6323
L7007L
sV752.63
p6324
L8846L
sV652.11
p6325
L7635L
sV415.1
p6326
L7746L
sV458.9
p6327
L940L
sV237.79
p6328
L3651L
sV812.59
p6329
L2944L
sVV25.1
p6330
L7446L
sV787.99
p6331
L836L
sV779.81
p6332
L7969L
sVV49.60
p6333
L3818L
sV377.00
p6334
L2783L
sV346.9
p6335
L6358L
sV642.70
p6336
L8351L
sV344.32
p6337
L5970L
sVL931
p6338
L4331L
sV414.3
p6339
L7856L
sV346.70
p6340
L2458L
sVE813.9
p6341
L6485L
sV627.3
p6342
L2716L
sV275.5
p6343
L7085L
sV453.77
p6344
L7125L
sV812.50
p6345
L7331L
sV053.11
p6346
L4099L
sV295.11
p6347
L7808L
sV173.92
p6348
L5659L
sV813.47
p6349
L9001L
sV744.9
p6350
L7641L
sVE888.0
p6351
L5041L
sV453.86
p6352
L2278L
sV755.31
p6353
L6191L
sV719.50
p6354
L1730L
sV533.30
p6355
L2838L
sV241.9
p6356
L3234L
sV173.21
p6357
L4690L
sV312.02
p6358
L3174L
sV291.3
p6359
L5291L
sV714.0
p6360
L466L
sV446.1
p6361
L7932L
sVV80.2
p6362
L1474L
sV604.99
p6363
L3230L
sV309.24
p6364
L147L
sV719.40
p6365
L617L
sVV81.9
p6366
L8357L
sV695.9
p6367
L510L
sV362.89
p6368
L7953L
sV088.81
p6369
L6483L
sV427.81
p6370
L1442L
sV321.3
p6371
L7725L
sVV85.4
p6372
L5997L
sV783.43
p6373
L2408L
sV007.4
p6374
L8891L
sV197.1
p6375
L7825L
sV695.19
p6376
L8747L
sV371.70
p6377
L7520L
sV286.2
p6378
L5268L
sV943.35
p6379
L3329L
sVV79.9
p6380
L2395L
sVV45.69
p6381
L1810L
sV783.7
p6382
L1604L
sV873.62
p6383
L6949L
sV600.01
p6384
L1603L
sV375.31
p6385
L7048L
sV944.05
p6386
L8916L
sV415.13
p6387
L7152L
sV203.10
p6388
L6584L
sV745.4
p6389
L4866L
sV569.3
p6390
L541L
sV844.2
p6391
L2030L
sV743.46
p6392
L8828L
sV642.33
p6393
L2963L
sV665.61
p6394
L8533L
sVE013.8
p6395
L8076L
sV526.2
p6396
L4708L
sVV53.02
p6397
L5699L
sVE929.0
p6398
L2489L
sV295.34
p6399
L4418L
sV746.7
p6400
L8186L
sV465.9
p6401
L269L
sV676.90
p6402
L6717L
sV868.01
p6403
L7014L
sV736.6
p6404
L7267L
sV649.04
p6405
L3089L
sV349.9
p6406
L506L
sV941.30
p6407
L3024L
sV553.9
p6408
L281L
sV401.9
p6409
L0L
sV593.71
p6410
L3490L
sV389.7
p6411
L6223L
sV451.19
p6412
L859L
sV765.14
p6413
L8008L
sV997.41
p6414
L6273L
sVV99.99
p6415
L8866L
sV727.83
p6416
L2681L
sV751.1
p6417
L4680L
sV365.23
p6418
L2088L
sV364.81
p6419
L8550L
sV722.90
p6420
L2740L
sV442.82
p6421
L7605L
sV675.04
p6422
L6883L
sV907.0
p6423
L14L
sV754.31
p6424
L6853L
sV433.91
p6425
L7439L
sV582.4
p6426
L7710L
sV701.0
p6427
L1544L
sV644.21
p6428
L3086L
sV307.52
p6429
L5202L
sV370.9
p6430
L2197L
sV391.0
p6431
L7596L
sV718.27
p6432
L5877L
sV482.39
p6433
L5833L
sV622.2
p6434
L7975L
sV171.4
p6435
L7610L
sVV18.19
p6436
L896L
sV943.11
p6437
L5515L
sV998.01
p6438
L8622L
sV851.43
p6439
L9029L
sV201.00
p6440
L8829L
sV508.2
p6441
L950L
sV853.00
p6442
L4213L
sV946.1
p6443
L6412L
sV823.00
p6444
L1996L
sV730.98
p6445
L8727L
sV305.73
p6446
L3376L
sV444.0
p6447
L4211L
sV191.8
p6448
L3123L
sV362.74
p6449
L5046L
sV616.11
p6450
L2011L
sVE950.5
p6451
L1215L
sVV42.0
p6452
L653L
sV711.86
p6453
L7927L
sV038.10
p6454
L1458L
sV831.00
p6455
L1338L
sV676.14
p6456
L8670L
sV652.53
p6457
L7675L
sV536.2
p6458
L627L
sV382.3
p6459
L3564L
sV995.52
p6460
L5459L
sV525.65
p6461
L8425L
sV887.0
p6462
L6919L
sV628.8
p6463
L8339L
sV579.0
p6464
L1409L
sV348.81
p6465
L3139L
sV597.89
p6466
L5307L
sVV82.1
p6467
L3792L
sV358.1
p6468
L7783L
sV641.90
p6469
L4552L
sV824.4
p6470
L2292L
sV684
p6471
L2385L
sV830.0
p6472
L4064L
sV867.6
p6473
L6306L
sV212.0
p6474
L4052L
sV715.12
p6475
L4158L
sV477.1
p6476
L1192L
sV401.0
p6477
L971L
sV054.72
p6478
L5637L
sV524.26
p6479
L5847L
sV155.1
p6480
L5783L
sV440.9
p6481
L1627L
sV301.3
p6482
L518L
sV711.90
p6483
L5995L
sV321.0
p6484
L7727L
sVV79.1
p6485
L16L
sV674.54
p6486
L8079L
sV296.01
p6487
L363L
sV714.30
p6488
L5204L
sV368.10
p6489
L2618L
sV804.05
p6490
L8977L
sV642.50
p6491
L2264L
sV395.90
p6492
L5947L
sV374.87
p6493
L1005L
sV404.90
p6494
L3648L
sV789.40
p6495
L6940L
sV844.1
p6496
L2130L
sVV53.91
p6497
L7547L
sV670.14
p6498
L5102L
sV441.5
p6499
L8060L
sV041.83
p6500
L8449L
sV110.3
p6501
L1687L
sV997.4
p6502
L6141L
sV090.0
p6503
L7613L
sV003.0
p6504
L4621L
sV807.06
p6505
L2454L
sV442.9
p6506
L3257L
sVV10.62
p6507
L7561L
sV372.73
p6508
L2430L
sV941.15
p6509
L7687L
sV268.2
p6510
L1023L
sV794.01
p6511
L4965L
sV788.32
p6512
L6751L
sV161.9
p6513
L3716L
sV288.63
p6514
L5434L
sV235.6
p6515
L7044L
sV996.49
p6516
L3205L
sV902.9
p6517
L5086L
sV911.8
p6518
L5846L
sV789.00
p6519
L141L
sV645.10
p6520
L6479L
sV716.51
p6521
L6684L
sVV15.53
p6522
L7984L
sV896.2
p6523
L7435L
sV748.1
p6524
L7128L
sV756.56
p6525
L7302L
sV742.51
p6526
L7511L
sV521.49
p6527
L7706L
sV926.19
p6528
L8591L
sV945.54
p6529
L8367L
sV338.21
p6530
L364L
sVE816.0
p6531
L1829L
sV584.5
p6532
L654L
sV590.2
p6533
L5930L
sV348.0
p6534
L3191L
sV682.3
p6535
L456L
sV295.23
p6536
L8237L
sV438.81
p6537
L3752L
sV530.11
p6538
L1002L
sVE988.8
p6539
L6363L
sV476.0
p6540
L1979L
sV825.22
p6541
L5530L
sV648.91
p6542
L788L
sV327.41
p6543
L7049L
sVV62.84
p6544
L396L
sV455.7
p6545
L6870L
sV378.15
p6546
L2023L
sV881.20
p6547
L7233L
sVV71.7
p6548
L3750L
sV210.6
p6549
L8841L
sV496.00
p6550
L8735L
sV360.51
p6551
L8391L
sV851.82
p6552
L8851L
sV250.13
p6553
L2200L
sV374.20
p6554
L6610L
sV443.0
p6555
L3261L
sV365.52
p6556
L6447L
sVE824.9
p6557
L5251L
sV852.12
p6558
L7020L
sV560.32
p6559
L3522L
sVV70.6
p6560
L6420L
sVE826.4
p6561
L4768L
sV360.40
p6562
L8006L
sV711.00
p6563
L1712L
sV594.2
p6564
L4616L
sV726.72
p6565
L1552L
sV732.5
p6566
L5360L
sV718.40
p6567
L1737L
sV722.10
p6568
L452L
sV277.30
p6569
L5244L
sVV15.09
p6570
L1248L
sV291.82
p6571
L3303L
sV011.40
p6572
L6592L
sV251.2
p6573
L1698L
sVE985.0
p6574
L6368L
sV364.70
p6575
L2615L
sV996.69
p6576
L2565L
sV799.9
p6577
L6L
sV815.11
p6578
L8825L
sV209.20
p6579
L3741L
sV451.81
p6580
L8118L
sV879.1
p6581
L7305L
sV746.02
p6582
L7313L
sV997.1
p6583
L2796L
sV912.1
p6584
L8171L
sVE931.7
p6585
L1809L
sV194.6
p6586
L6556L
sV915.0
p6587
L2612L
sV806.05
p6588
L6946L
sV918.1
p6589
L2427L
sV789.03
p6590
L645L
sV197.6
p6591
L3744L
sV276.7
p6592
L314L
sV944.06
p6593
L8358L
sV958.5
p6594
L8647L
sV327.14
p6595
L5324L
sV808.8
p6596
L1594L
sV651.03
p6597
L2860L
sV784.42
p6598
L2751L
sVV55.4
p6599
L2775L
sV654.61
p6600
L6311L
sV403.11
p6601
L2363L
sV398.91
p6602
L206L
sV693.1
p6603
L1946L
sV303.01
p6604
L1201L
sV351.8
p6605
L4425L
sV821.00
p6606
L1771L
sV593.72
p6607
L3965L
sV389.04
p6608
L8798L
sV279.49
p6609
L3747L
sV077.1
p6610
L6279L
sV794.02
p6611
L2603L
sV300.89
p6612
L6710L
sV900.82
p6613
L6924L
sV312.12
p6614
L8189L
sV758.2
p6615
L3478L
sV250.02
p6616
L235L
sV170.5
p6617
L8734L
sV425.4
p6618
L1182L
sV290.21
p6619
L3822L
sV542
p6620
L376L
sV996.63
p6621
L2574L
sVV13.64
p6622
L3683L
sV512.84
p6623
L3763L
sV742.4
p6624
L4228L
sVV12.40
p6625
L5885L
sV379.91
p6626
L476L
sVV06.5
p6627
L1524L
sV253.0
p6628
L5558L
sV291.5
p6629
L8897L
sV572.1
p6630
L5071L
sV571.42
p6631
L1646L
sV608.9
p6632
L2820L
sV024
p6633
L5460L
sV437.1
p6634
L49L
sV300.7
p6635
L2054L
sV053.9
p6636
L1018L
sV443.23
p6637
L8184L
sV566
p6638
L844L
sV318
p6639
L7685L
sV596.83
p6640
L8497L
sV686.01
p6641
L3260L
sV596.9
p6642
L1644L
sV730.90
p6643
L7041L
sV701.2
p6644
L2236L
sV413.9
p6645
L1477L
sV759.9
p6646
L6983L
sVE942.4
p6647
L7614L
sV434.01
p6648
L2804L
sV945.04
p6649
L5326L
sV906.3
p6650
L5840L
sV278.2
p6651
L3814L
sVV82.71
p6652
L6726L
sV730.06
p6653
L4651L
sV716.05
p6654
L8962L
sV005.1
p6655
L8875L
sV813.43
p6656
L3237L
sV508.8
p6657
L3231L
sV277.1
p6658
L2397L
sV379.92
p6659
L1220L
sV583.4
p6660
L7151L
sVV15.80
p6661
L5070L
sV846.1
p6662
L5028L
sV041.01
p6663
L5125L
sV531.10
p6664
L6360L
sVV71.6
p6665
L3510L
sV974.5
p6666
L2985L
sVV72.32
p6667
L3666L
sV289.51
p6668
L6814L
sV959.14
p6669
L3836L
sVE819.0
p6670
L2728L
sVV13.02
p6671
L2159L
sV845.10
p6672
L891L
sVE935.3
p6673
L2763L
sV579.4
p6674
L6995L
sV875.1
p6675
L3505L
sV728.5
p6676
L3848L
sV173.60
p6677
L6944L
sV242.30
p6678
L4105L
sVV58.83
p6679
L659L
sV716.41
p6680
L2243L
sV530.7
p6681
L3166L
sV382.01
p6682
L3421L
sV924.8
p6683
L968L
sV661.90
p6684
L8949L
sV707.14
p6685
L330L
sV507.0
p6686
L117L
sV535.70
p6687
L7368L
sV238.5
p6688
L8406L
sV733.02
p6689
L3460L
sV847.3
p6690
L4033L
sV286.52
p6691
L6812L
sV053.13
p6692
L2888L
sV595.3
p6693
L4151L
sV808.0
p6694
L1588L
sV249.40
p6695
L3044L
sVE953.0
p6696
L4650L
sV296.20
p6697
L285L
sV799.81
p6698
L3671L
sV744.05
p6699
L3207L
sVE010.0
p6700
L7829L
sV385.33
p6701
L7579L
sV228.00
p6702
L3341L
sVV70.3
p6703
L2675L
sV643.90
p6704
L772L
sV516.9
p6705
L5880L
sV727.42
p6706
L2026L
sV363.00
p6707
L8616L
sV369.73
p6708
L8173L
sV758.32
p6709
L6076L
sV387.9
p6710
L3834L
sV562.13
p6711
L4443L
sV582.89
p6712
L5218L
sVV71.81
p6713
L6871L
sV296.22
p6714
L1256L
sVV65.19
p6715
L3886L
sV493.81
p6716
L3068L
sV946.3
p6717
L8524L
sVE817.8
p6718
L8807L
sV752.11
p6719
L5591L
sV365.20
p6720
L4983L
sV906.2
p6721
L3617L
sV146.2
p6722
L7722L
sV574.41
p6723
L6643L
sV825.1
p6724
L8149L
sV380.01
p6725
L5576L
sVV58.78
p6726
L1722L
sV358.9
p6727
L2388L
sV815.03
p6728
L4977L
sV560.89
p6729
L845L
sVV91.00
p6730
L5171L
sV646.13
p6731
L4821L
sVV14.5
p6732
L561L
sV598.2
p6733
L7440L
sV741.00
p6734
L4845L
sV313.83
p6735
L4489L
sV666.22
p6736
L8543L
sV529.9
p6737
L3252L
sV432.9
p6738
L925L
sV478.79
p6739
L2670L
sVV42.5
p6740
L4444L
sV455.0
p6741
L624L
sV718.88
p6742
L5194L
sVV81.5
p6743
L4610L
sV531.00
p6744
L6310L
sV466.11
p6745
L3469L
sV372.00
p6746
L1547L
sV250.2
p6747
L4087L
sV304.33
p6748
L2947L
sVE869.4
p6749
L7112L
sV780.39
p6750
L3L
sV228.02
p6751
L4130L
sV600.0
p6752
L6640L
sVV27.0
p6753
L616L
sV621.5
p6754
L5066L
sVV10.88
p6755
L7477L
sV607.2
p6756
L3576L
sVV44.51
p6757
L2490L
sV790.99
p6758
L1133L
sVE880.9
p6759
L1826L
sV272.8
p6760
L1872L
sV250.20
p6761
L688L
sV153.7
p6762
L7871L
sV794.39
p6763
L2437L
sV284.81
p6764
L2273L
sV601.3
p6765
L8931L
sV707.12
p6766
L3058L
sV318.10
p6767
L8144L
sV366.12
p6768
L1519L
sV581.81
p6769
L3315L
sVV60.3
p6770
L4671L
sV652.51
p6771
L8510L
sV801.01
p6772
L5009L
sV619.0
p6773
L841L
sV383.31
p6774
L6186L
sV491.22
p6775
L229L
sV765.00
p6776
L7696L
sV824.9
p6777
L2081L
sV210.0
p6778
L643L
sV872.8
p6779
L4891L
sV305.03
p6780
L1200L
sV765.19
p6781
L8845L
sV719.62
p6782
L6721L
sV808.53
p6783
L4008L
sV733.3
p6784
L4627L
sV994.3
p6785
L8896L
sV379.12
p6786
L8260L
sV250.80
p6787
L963L
sV286.1
p6788
L6545L
sV453.75
p6789
L7123L
sV073.9
p6790
L7695L
sV649.81
p6791
L8745L
sVE947.0
p6792
L7920L
sV731.1
p6793
L8520L
sV786.3
p6794
L2919L
sV965.4
p6795
L2996L
sV716.99
p6796
L642L
sV070.41
p6797
L1083L
sVE900.1
p6798
L7913L
sV376.33
p6799
L4594L
sV648.03
p6800
L3605L
sV327.39
p6801
L6894L
sV790.22
p6802
L311L
sV945.26
p6803
L6505L
sV202.86
p6804
L4173L
sV428.22
p6805
L2367L
sV780.54
p6806
L1183L
sV718.65
p6807
L6096L
sV249.70
p6808
L1041L
sV718.44
p6809
L514L
sV789.31
p6810
L1586L
sV309.9
p6811
L927L
sV601.9
p6812
L2221L
sVV71.09
p6813
L2132L
sV608.86
p6814
L2819L
sV741.91
p6815
L7319L
sVV54.9
p6816
L3431L
sV789.63
p6817
L3664L
sV305.0
p6818
L4934L
sVV43.3
p6819
L1285L
sV823.9
p6820
L6596L
sVV50.1
p6821
L8102L
sVV80.09
p6822
L2784L
sV901.41
p6823
L8371L
sV523.6
p6824
L3593L
sV295.42
p6825
L5493L
sV305.53
p6826
L362L
sV301.4
p6827
L3567L
sV569.9
p6828
L3995L
sV359.4
p6829
L4320L
sV300.81
p6830
L1599L
sVV55.3
p6831
L167L
sV719.03
p6832
L2757L
sV783.6
p6833
L4184L
sV879.8
p6834
L161L
sVV04.0
p6835
L5214L
sV564.3
p6836
L6272L
sV729.92
p6837
L5536L
sV748.61
p6838
L8316L
sV749.01
p6839
L8809L
sVV61.05
p6840
L6211L
sV674.80
p6841
L6647L
sV438.10
p6842
L75L
sV310.8
p6843
L8704L
sV315.39
p6844
L1470L
sV715.95
p6845
L294L
sV730.38
p6846
L3665L
sV666.02
p6847
L1528L
sV413.1
p6848
L3568L
sV671.81
p6849
L7647L
sV802.6
p6850
L4129L
sV923.11
p6851
L1226L
sV741.9
p6852
L8504L
sV191.1
p6853
L6528L
sV577.8
p6854
L1124L
sV209.03
p6855
L3736L
sV110.4
p6856
L1840L
sV860.2
p6857
L2455L
sV438.89
p6858
L425L
sVE906.3
p6859
L3108L
sV438.52
p6860
L7818L
sV241.0
p6861
L276L
sV374.54
p6862
L5375L
sVV24.0
p6863
L7513L
sVV82.6
p6864
L8484L
sV873.74
p6865
L5043L
sVV50.42
p6866
L5141L
sV724.6
p6867
L795L
sV214.0
p6868
L4756L
sV414.06
p6869
L4534L
sV208.02
p6870
L5441L
sV646.23
p6871
L4818L
sV863.43
p6872
L7325L
sV253.1
p6873
L5242L
sV309.89
p6874
L4188L
sVE815.0
p6875
L6305L
sV464.4
p6876
L4526L
sV774.2
p6877
L6489L
sV236.4
p6878
L5208L
sV575.4
p6879
L7506L
sVV18.69
p6880
L3071L
sV194.5
p6881
L9007L
sV908.0
p6882
L8934L
sVV75.5
p6883
L7672L
sV385.32
p6884
L6014L
sV280.1
p6885
L5152L
sV878.3
p6886
L4265L
sV238.9
p6887
L5367L
sV291.9
p6888
L2870L
sV663.13
p6889
L7630L
sVV49.61
p6890
L6920L
sV372.13
p6891
L4776L
sV209.21
p6892
L8894L
sV527.0
p6893
L3509L
sV304.10
p6894
L729L
sVE858.7
p6895
L5456L
sV728.7
p6896
L2817L
sV202.80
p6897
L2376L
sV146.0
p6898
L5650L
sV304.61
p6899
L4401L
sV995.85
p6900
L3007L
sV996.52
p6901
L2566L
sV733.6
p6902
L391L
sVV28.81
p6903
L595L
sV202.93
p6904
L7352L
sV715.90
p6905
L304L
sV714.4
p6906
L1089L
sV716.84
p6907
L4697L
sV271.9
p6908
L4441L
sV481
p6909
L138L
sV343.4
p6910
L6550L
sVV49.86
p6911
L354L
sV443.82
p6912
L6866L
sV854.10
p6913
L4619L
sV787.61
p6914
L8257L
sV795.01
p6915
L834L
sV850.9
p6916
L2727L
sV386.00
p6917
L2158L
sV289.82
p6918
L6005L
sV327.27
p6919
L2450L
sV796.5
p6920
L597L
sV183.0
p6921
L5305L
sVV26.21
p6922
L8098L
sV718.2
p6923
L2449L
sV719.13
p6924
L6923L
sV640.83
p6925
L5131L
sV485
p6926
L3856L
sV308.9
p6927
L1877L
sV755.61
p6928
L4964L
sV676.60
p6929
L200L
sVE820.9
p6930
L8783L
sV112.5
p6931
L2593L
sVV13.89
p6932
L1004L
sV718.01
p6933
L2438L
sV295.03
p6934
L7988L
sV574.30
p6935
L2091L
sV707.04
p6936
L2818L
sV365.24
p6937
L7936L
sV676.80
p6938
L8668L
sV670.04
p6939
L7651L
sV648.94
p6940
L2259L
sV704.01
p6941
L2703L
sV250.53
p6942
L3050L
sV997.01
p6943
L4390L
sV340
p6944
L1861L
sV518.4
p6945
L2115L
sV555.2
p6946
L4742L
sV952.04
p6947
L2688L
sV117.7
p6948
L6068L
sVE947.9
p6949
L1559L
sV912.9
p6950
L4226L
sVV45.89
p6951
L693L
sV807.04
p6952
L2831L
sV989.5
p6953
L1918L
sVV54.14
p6954
L1770L
sVE939.0
p6955
L6634L
sV232.2
p6956
L7723L
sV620.0
p6957
L2311L
sV313.89
p6958
L4738L
sV199.0
p6959
L6585L
sV895.0
p6960
L3038L
sV232.5
p6961
L3525L
sVV45.78
p6962
L4914L
sV074.0
p6963
L3974L
sV692.2
p6964
L1538L
sV755.59
p6965
L4195L
sVV54.23
p6966
L3446L
sV164.9
p6967
L7826L
sV530.83
p6968
L1171L
sVE850.6
p6969
L7187L
sV310.1
p6970
L555L
sV534.40
p6971
L7379L
sV364.89
p6972
L2614L
sV85400
p6973
L7945L
sVV90.12
p6974
L6622L
sV300.12
p6975
L8067L
sV619.1
p6976
L3634L
sV805.12
p6977
L8976L
sV919.1
p6978
L7009L
sV972.9
p6979
L5112L
sV617.8
p6980
L5065L
sV866.00
p6981
L2828L
sV564.5
p6982
L1001L
sV692.1
p6983
L7019L
sV250.60
p6984
L250L
sV839.20
p6985
L3436L
sV787.21
p6986
L2781L
sV794.4
p6987
L2245L
sV825.0
p6988
L3428L
sV296.55
p6989
L726L
sV788.99
p6990
L407L
sV621.6
p6991
L3714L
sV192.2
p6992
L3125L
sVE950.9
p6993
L3409L
sV453.3
p6994
L2973L
sV747.69
p6995
L6078L
sVE902.0
p6996
L5338L
sV186.9
p6997
L7172L
sV823.41
p6998
L7644L
sV805.08
p6999
L4936L
sV360.3
p7000
L7219L
sV755.63
p7001
L238L
sVV62.83
p7002
L6948L
sV415.19
p7003
L848L
sVE898.1
p7004
L7089L
sV568.89
p7005
L2773L
sV795.51
p7006
L1385L
sV343.1
p7007
L3581L
sVE946.0
p7008
L8228L
sV459.31
p7009
L3061L
sV054.79
p7010
L7357L
sV758.0
p7011
L1085L
sV353.3
p7012
L6476L
sV744.3
p7013
L6347L
sV552.3
p7014
L3459L
sV562.03
p7015
L8054L
sV823.12
p7016
L8505L
sV359.29
p7017
L6150L
sV863.40
p7018
L7491L
sV353.2
p7019
L2521L
sV098.15
p7020
L8463L
sV276.9
p7021
L943L
sV525.41
p7022
L4406L
sV325
p7023
L5596L
sV564.2
p7024
L4372L
sV656.13
p7025
L2351L
sV970.0
p7026
L8705L
sV637.90
p7027
L6799L
sVV19.6
p7028
L7854L
sV641.93
p7029
L4743L
sV527.2
p7030
L1671L
sV272.1
p7031
L895L
sVE868.8
p7032
L6695L
sV295.95
p7033
L4414L
sV750.7
p7034
L8518L
sV312.9
p7035
L519L
sV867.0
p7036
L3956L
sV970.1
p7037
L5763L
sV495.9
p7038
L935L
sV802.24
p7039
L4379L
sV807.5
p7040
L7449L
sV346.81
p7041
L3153L
sV488.82
p7042
L2731L
sV648.33
p7043
L591L
sV550.00
p7044
L6544L
sV654.51
p7045
L5264L
sV269.1
p7046
L3882L
sV459.81
p7047
L1850L
sV730.70
p7048
L6091L
sV512.1
p7049
L4102L
sV715.04
p7050
L4069L
sV255.5
p7051
L3497L
sV457.0
p7052
L3544L
sV918.2
p7053
L3892L
sV512.2
p7054
L5358L
sVE922.4
p7055
L6466L
sV686.1
p7056
L3585L
sV038.44
p7057
L3154L
sV902.89
p7058
L4505L
sV608.3
p7059
L6172L
sV780.6
p7060
L5328L
sV876.1
p7061
L3214L
sV864.00
p7062
L4890L
sV799.90
p7063
L4896L
sV788.38
p7064
L3074L
sV338
p7065
L2869L
sVV72.85
p7066
L189L
sV715.32
p7067
L1227L
sV850.11
p7068
L2693L
sV427.61
p7069
L2921L
sV996.2
p7070
L2560L
sVV78.2
p7071
L6403L
sVV45.61
p7072
L3209L
sV996.81
p7073
L667L
sV756.59
p7074
L4523L
sV621.0
p7075
L3278L
sV410.10
p7076
L2661L
sV641.80
p7077
L833L
sV735.3
p7078
L3878L
sVV06.0
p7079
L6817L
sV516.31
p7080
L2507L
sV935.1
p7081
L2668L
sVV09.1
p7082
L7031L
sV272.4
p7083
L187L
sV402.10
p7084
L1851L
sV735.1
p7085
L3921L
sV357.6
p7086
L3802L
sVE825.9
p7087
L3962L
sV806.26
p7088
L7385L
sV235.0
p7089
L4417L
sV240.0
p7090
L3233L
sVE946.1
p7091
L5992L
sVE880.1
p7092
L4253L
sV374.89
p7093
L4239L
sVV58.12
p7094
L2594L
sV010.05
p7095
L8095L
sV791.4
p7096
L4411L
sVV16.51
p7097
L5821L
sV852.10
p7098
L8814L
sVE855.0
p7099
L8645L
sV288.00
p7100
L2377L
sV553.3
p7101
L460L
sV743.9
p7102
L7521L
sV157.8
p7103
L5780L
sV799.21
p7104
L2548L
sV357.81
p7105
L5616L
sV818.0
p7106
L6100L
sV369.65
p7107
L6896L
sV243
p7108
L2717L
sV191.4
p7109
L3131L
sV194.3
p7110
L8105L
sV803.31
p7111
L6042L
sV704.3
p7112
L8868L
sV659.43
p7113
L5806L
sV442.0
p7114
L4856L
sV519.11
p7115
L1309L
sV655.53
p7116
L780L
sV708.8
p7117
L2704L
sV302.72
p7118
L3787L
sV715.30
p7119
L2600L
sV996.55
p7120
L6822L
sV289.81
p7121
L1509L
sV813.83
p7122
L4625L
sV805.00
p7123
L3132L
sVV90.9
p7124
L5548L
sVE934.2
p7125
L1282L
sV537.84
p7126
L6620L
sV097.0
p7127
L7550L
sVV43.0
p7128
L5562L
sV202.06
p7129
L4174L
sV374.00
p7130
L5016L
sV789.32
p7131
L7070L
sV866.11
p7132
L7279L
sVE005.4
p7133
L5333L
sVV49.71
p7134
L4661L
sV266.0
p7135
L5618L
sV204.01
p7136
L3646L
sV911.2
p7137
L7855L
sVV72.60
p7138
L65L
sV368.41
p7139
L4846L
sV245.0
p7140
L7075L
sV292.82
p7141
L6607L
sV727.67
p7142
L2136L
sV914.9
p7143
L6259L
sV634.72
p7144
L6036L
sV640.03
p7145
L578L
sV851.04
p7146
L8805L
sV290.42
p7147
L5915L
sV727.61
p7148
L2238L
sV649.53
p7149
L2960L
sV781
p7150
L6406L
sVV69.5
p7151
L8087L
sV716.21
p7152
L9031L
sV528.01
p7153
L3803L
sV944.24
p7154
L6416L
sVE858.2
p7155
L8876L
sV272.0
p7156
L279L
sV174.1
p7157
L1958L
sV420.90
p7158
L4764L
sV082.0
p7159
L6350L
sV750.0
p7160
L7637L
sV281.8
p7161
L3816L
sV170.2
p7162
L3127L
sV362.21
p7163
L7877L
sV717.85
p7164
L7231L
sV716.58
p7165
L6788L
sV136.8
p7166
L1815L
sV646.80
p7167
L1801L
sV359.6
p7168
L3262L
sV447.8
p7169
L4402L
sV711.95
p7170
L887L
sV180.8
p7171
L7817L
sV718.52
p7172
L7006L
sV337.20
p7173
L4915L
sVV23.82
p7174
L4815L
sV742.53
p7175
L5733L
sV656.03
p7176
L6872L
sV451.0
p7177
L5553L
sV292.81
p7178
L3011L
sVV53.01
p7179
L4389L
sV141.6
p7180
L5657L
sV816.00
p7181
L2512L
sVV62.9
p7182
L1945L
sV896.1
p7183
L7756L
sV173.01
p7184
L4691L
sV773.0
p7185
L8508L
sV782.1
p7186
L584L
sV848.1
p7187
L6668L
sV807.02
p7188
L822L
sV750.4
p7189
L7309L
sV580.81
p7190
L4968L
sV359.0
p7191
L4459L
sV838.09
p7192
L7069L
sV940.2
p7193
L8895L
sV730.30
p7194
L8417L
sV894.0
p7195
L1430L
sV338.0
p7196
L922L
sV611.83
p7197
L4080L
sV301.81
p7198
L4668L
sV999.52
p7199
L2194L
sV529.4
p7200
L7814L
sV493.92
p7201
L1084L
sV065.0
p7202
L4715L
sV729.0
p7203
L2127L
sV682.7
p7204
L325L
sV070.9
p7205
L5628L
sVV62
p7206
L8738L
sVV46.14
p7207
L7545L
sV697.9
p7208
L6914L
sVE876.2
p7209
L6274L
sV288.4
p7210
L4533L
sV839.03
p7211
L4946L
sV764.96
p7212
L2033L
sV153.1
p7213
L7887L
sV173.9
p7214
L7763L
sV719.30
p7215
L7244L
sV669.51
p7216
L5960L
sV944.15
p7217
L6415L
sV622.11
p7218
L4730L
sV307.20
p7219
L5249L
sV641.13
p7220
L6317L
sV041.85
p7221
L1718L
sVV43.63
p7222
L6162L
sVV45.52
p7223
L2016L
sV414.00
p7224
L1038L
sV666.34
p7225
L8573L
sVV25.5
p7226
L2015L
sVV61.49
p7227
L5600L
sV780.31
p7228
L2690L
sV415.11
p7229
L4139L
sV718.93
p7230
L5187L
sV711.01
p7231
L2759L
sV292.89
p7232
L3853L
sV237.4
p7233
L5794L
sV237.2
p7234
L6387L
sV729.30
p7235
L4779L
sV230.0
p7236
L5652L
sV333.5
p7237
L3140L
sV225.3
p7238
L3439L
sV952.16
p7239
L2887L
sV075
p7240
L4270L
sV623.2
p7241
L5210L
sV388.31
p7242
L3098L
sV291.89
p7243
L3986L
sV820.00
p7244
L2496L
sV034.1
p7245
L6446L
sV403.91
p7246
L661L
sV780.51
p7247
L3106L
sVE929.8
p7248
L3359L
sV371.57
p7249
L4162L
sV295.45
p7250
L2991L
sV345.3
p7251
L355L
sV813.41
p7252
L1266L
sV287.31
p7253
L2366L
sV074.3
p7254
L2387L
sV722.81
p7255
L2434L
sV302.50
p7256
L7813L
sV482.30
p7257
L2564L
sV801.16
p7258
L6037L
sV574.60
p7259
L3735L
sV583.89
p7260
L4584L
sV720.81
p7261
L2393L
sV827.0
p7262
L237L
sV641.01
p7263
L8459L
sV663.91
p7264
L8230L
sV707.22
p7265
L1570L
sV716.43
p7266
L6496L
sV737.43
p7267
L1255L
sV378.32
p7268
L6168L
sV532.91
p7269
L1575L
sV426.7
p7270
L4824L
sV229.0
p7271
L5757L
sV208.01
p7272
L7097L
sVV03.7
p7273
L4428L
sVE919.8
p7274
L8991L
sV995.50
p7275
L7510L
sVV62.81
p7276
L5630L
sV478.26
p7277
L4955L
sV719.49
p7278
L918L
sV722.70
p7279
L5188L
sV461.9
p7280
L217L
sV438.20
p7281
L296L
sV426.2
p7282
L37L
sV711.94
p7283
L8643L
sV669.84
p7284
L6546L
sV789.0
p7285
L3992L
sV454.2
p7286
L1596L
sV801.11
p7287
L8378L
sV269.3
p7288
L3902L
sVV58.9
p7289
L3143L
sV277.31
p7290
L8777L
sV553.01
p7291
L7631L
sV654.41
p7292
L4486L
sV341.8
p7293
L6536L
sV868.19
p7294
L8215L
sVE927.2
p7295
L4935L
sV796.1
p7296
L4094L
sV444.2
p7297
L8641L
sV519.8
p7298
L532L
sV822.0
p7299
L1392L
sVV45.09
p7300
L2737L
sV618.1
p7301
L2267L
sV252.1
p7302
L4035L
sV685.1
p7303
L1535L
sV785.9
p7304
L1025L
sV211.7
p7305
L5920L
sV453.82
p7306
L1682L
sV633.01
p7307
L5052L
sV902.53
p7308
L7816L
sV364.02
p7309
L4582L
sVV85.23
p7310
L4941L
sV832.02
p7311
L7586L
sV356.9
p7312
L204L
sV384.81
p7313
L8612L
sVV19.8
p7314
L5310L
sV385.23
p7315
L4615L
sV315.4
p7316
L2626L
sV593.5
p7317
L3313L
sVV69.4
p7318
L5044L
sVV40.3
p7319
L7918L
sV000.0
p7320
L8820L
sV525.3
p7321
L3155L
sV558.2
p7322
L5730L
sV428.40
p7323
L1480L
sV569.81
p7324
L5449L
sV456.1
p7325
L957L
sV642.21
p7326
L7599L
sV523.25
p7327
L7668L
sVE980.2
p7328
L7002L
sV114.9
p7329
L5085L
sV745.12
p7330
L7210L
sV562.01
p7331
L5674L
sV237.6
p7332
L3935L
sV296.06
p7333
L8585L
sVE968.9
p7334
L1445L
sV642.94
p7335
L6648L
sVV45.81
p7336
L1656L
sV038.3
p7337
L4104L
sV426.81
p7338
L5423L
sV895.1
p7339
L6151L
sV718.42
p7340
L2168L
sV730.87
p7341
L4462L
sV362.43
p7342
L8109L
sV410.82
p7343
L6277L
sV273.1
p7344
L337L
sV744.29
p7345
L8660L
sV115.90
p7346
L8925L
sV198.4
p7347
L5439L
sV614.9
p7348
L379L
sV528.2
p7349
L3337L
sV996.66
p7350
L882L
sV410.71
p7351
L1478L
sV624.3
p7352
L6308L
sV453.73
p7353
L5844L
sV823.80
p7354
L3728L
sV836.51
p7355
L8939L
sV294.8
p7356
L528L
sV211.3
p7357
L503L
sV647.61
p7358
L2970L
sV624.02
p7359
L4132L
sV802.28
p7360
L8577L
sV728.79
p7361
L6190L
sV648.71
p7362
L6369L
sV825.29
p7363
L1093L
sV363.30
p7364
L2788L
sV816.03
p7365
L2513L
sV365.44
p7366
L7165L
sV295
p7367
L8273L
sV730.15
p7368
L160L
sVE885.0
p7369
L8489L
sV408.45
p7370
L5851L
sV823.20
p7371
L5104L
sV821.01
p7372
L990L
sV727.69
p7373
L6289L
sV096
p7374
L8789L
sV998.2
p7375
L2370L
sV276.4
p7376
L1681L
sV719.45
p7377
L283L
sV737.30
p7378
L1254L
sV299.00
p7379
L3172L
sVV10.05
p7380
L869L
sVV48.6
p7381
L8103L
sV384.20
p7382
L2445L
sVV58.69
p7383
L348L
sV447.6
p7384
L1766L
sV996.31
p7385
L166L
sVE928.3
p7386
L3779L
sV618.6
p7387
L5785L
sV992.8
p7388
L8490L
sV733.14
p7389
L865L
sV298.4
p7390
L8865L
sVE815.1
p7391
L4256L
sV721.90
p7392
L248L
sV718.21
p7393
L7781L
sV753.20
p7394
L4154L
sVE890.3
p7395
L946L
sV598.9
p7396
L1271L
sVV70.7
p7397
L2597L
sV370.24
p7398
L4447L
sV041.19
p7399
L2806L
sV346.93
p7400
L2852L
sV834.00
p7401
L2658L
sVV04.81
p7402
L2L
sV356.2
p7403
L7548L
sV361.30
p7404
L5120L
sV574.61
p7405
L5955L
sV567.1
p7406
L5532L
sV232.0
p7407
L8773L
sV948.93
p7408
L8648L
sV250.41
p7409
L3545L
sV716.86
p7410
L6858L
sV256.31
p7411
L3274L
sVV12.3
p7412
L1964L
sV346.72
p7413
L3658L
sV680.7
p7414
L3034L
sV453.0
p7415
L3876L
sV755.66
p7416
L3486L
sV327.33
p7417
L5542L
sV372.44
p7418
L7029L
sV715.36
p7419
L464L
sV996.87
p7420
L4062L
sV012.82
p7421
L5227L
sV558.9
p7422
L501L
sV960.0
p7423
L6601L
sV728.87
p7424
L163L
sV680.3
p7425
L4024L
sVE002.0
p7426
L4525L
sV729.2
p7427
L936L
sV891.0
p7428
L1212L
sV736.42
p7429
L3577L
sVV87.01
p7430
L7373L
sV528.8
p7431
L5447L
sV802.25
p7432
L5958L
sV982.4
p7433
L8990L
sV716.59
p7434
L357L
sV711.02
p7435
L6120L
sV902.54
p7436
L7815L
sV716.95
p7437
L888L
sV584.8
p7438
L3758L
sVV10.02
p7439
L183L
sV033.8
p7440
L8078L
sV379.26
p7441
L3394L
sV997.31
p7442
L1926L
sV278.00
p7443
L50L
sV644.13
p7444
L2093L
sV346.03
p7445
L2457L
sVE858.6
p7446
L2043L
sV457.1
p7447
L3435L
sV374.82
p7448
L1249L
sVE000.8
p7449
L2880L
sVE812.1
p7450
L605L
sV817.0
p7451
L4267L
sVV64.06
p7452
L427L
sV648.23
p7453
L2968L
sVV42.9
p7454
L7621L
sV295.9
p7455
L8791L
sV854.04
p7456
L68L
sVV15.05
p7457
L1493L
sV112.2
p7458
L1141L
sV428.4
p7459
L5739L
sV611.71
p7460
L495L
sVV87.43
p7461
L5513L
sV380.13
p7462
L995L
sV198.7
p7463
L6315L
sV839.69
p7464
L5518L
sV752.69
p7465
L5809L
sV851.81
p7466
L4416L
sVV59.4
p7467
L8051L
sV968.4
p7468
L9005L
sV787.29
p7469
L2210L
sV656.81
p7470
L1527L
sV360.33
p7471
L7952L
sV754.0
p7472
L6881L
sV676.94
p7473
L8422L
sV966.4
p7474
L7301L
sV370.06
p7475
L8656L
sVV12.70
p7476
L4235L
sV825.24
p7477
L4862L
sVE890.2
p7478
L5648L
sVE850.9
p7479
L6513L
sV757.32
p7480
L7740L
sV656.53
p7481
L1762L
sV524.30
p7482
L6411L
sV965.69
p7483
L8475L
sVE958.8
p7484
L3569L
sV518.52
p7485
L4424L
sVE967.0
p7486
L1444L
sV922.2
p7487
L2755L
sVV58.62
p7488
L1814L
sVE004.9
p7489
L5561L
sV160.0
p7490
L7481L
sV354.9
p7491
L1348L
sV940.9
p7492
L3027L
sV453.51
p7493
L2975L
sV620.6
p7494
L7098L
sV952.15
p7495
L5933L
sV454.9
p7496
L1838L
sV759.1
p7497
L8306L
sV246.2
p7498
L1437L
sV378.45
p7499
L7104L
sVE003.2
p7500
L7201L
sV625.71
p7501
L8666L
sV741.92
p7502
L5824L
sV296.44
p7503
L1379L
sV945.32
p7504
L8313L
sV070.70
p7505
L334L
sV728.13
p7506
L5289L
sV414.2
p7507
L2900L
sV955.6
p7508
L8039L
sV057.9
p7509
L886L
sV345.1
p7510
L2605L
sV378.11
p7511
L4281L
sVE968.2
p7512
L4325L
sV649.20
p7513
L8833L
sV718.91
p7514
L3379L
sV170.7
p7515
L5406L
sV813.42
p7516
L992L
sV595.81
p7517
L4159L
sV304.21
p7518
L3406L
sV704.00
p7519
L1407L
sV255.2
p7520
L6982L
sV635.82
p7521
L8726L
sV780.4
p7522
L272L
sV310.89
p7523
L6204L
sV917.0
p7524
L343L
sV801.00
p7525
L5746L
sV327.23
p7526
L280L
sV753.10
p7527
L1893L
sVV61.09
p7528
L5429L
sV525.64
p7529
L4507L
sV852.01
p7530
L4617L
sV942.24
p7531
L3667L
sV586
p7532
L655L
sV173.82
p7533
L174L
sVV72.40
p7534
L1758L
sVE967.5
p7535
L5257L
sV209.36
p7536
L6758L
sV748.69
p7537
L3334L
sV647.81
p7538
L6968L
sVV23.0
p7539
L7591L
sVE878.9
p7540
L1709L
sV189.2
p7541
L8304L
sV380.16
p7542
L3679L
sV295.10
p7543
L4419L
sV309.28
p7544
L1159L
sV944.40
p7545
L9027L
sVV58.11
p7546
L856L
sVV88.11
p7547
L5921L
sV728.88
p7548
L24L
sV516.2
p7549
L7173L
sV718.60
p7550
L8624L
sV414.05
p7551
L2152L
sV472.1
p7552
L2475L
sV189.1
p7553
L4901L
sV295.71
p7554
L4186L
sV478.31
p7555
L6728L
sV842.13
p7556
L4513L
sV583.9
p7557
L2567L
sV205.80
p7558
L5884L
sV910.4
p7559
L5808L
sV653.03
p7560
L7494L
sV628.0
p7561
L1981L
sV364.01
p7562
L1901L
sV293.82
p7563
L4601L
sV719.90
p7564
L5999L
sV198.82
p7565
L3743L
sV744.89
p7566
L3485L
sVV06.3
p7567
L5054L
sV571.6
p7568
L3812L
sV716.85
p7569
L8631L
sV644.00
p7570
L3905L
sV425.7
p7571
L6808L
sV238.2
p7572
L987L
sV997.71
p7573
L8004L
sV304.70
p7574
L649L
sV461.1
p7575
L910L
sV225.1
p7576
L4987L
sV753.6
p7577
L8270L
sV768.73
p7578
L7078L
sV618.03
p7579
L5197L
sVE884.2
p7580
L1468L
sV997.9
p7581
L7704L
sV719.14
p7582
L6671L
sVV41.0
p7583
L4654L
sV401
p7584
L7667L
sV437.4
p7585
L5080L
sV307.54
p7586
L7883L
sV529.0
p7587
L3914L
sVV76.47
p7588
L1431L
sV711.59
p7589
L8706L
sV642.31
p7590
L3275L
sV237.71
p7591
L7897L
sV362.16
p7592
L4456L
sVV02.52
p7593
L7525L
sV322.9
p7594
L3800L
sV811.01
p7595
L817L
sV808.2
p7596
L1587L
sV377.24
p7597
L7242L
sV942.03
p7598
L3959L
sVV12.69
p7599
L885L
sV629.89
p7600
L720L
sV736.22
p7601
L3481L
sV242.9
p7602
L8132L
sV283.0
p7603
L4656L
sVV18.4
p7604
L6333L
sV339.89
p7605
L3372L
sV867.8
p7606
L4014L
sV599.5
p7607
L5979L
sV375.54
p7608
L7287L
sV754.71
p7609
L233L
sVE014.1
p7610
L6422L
sV238.72
p7611
L6198L
sV402.00
p7612
L4645L
sV646.12
p7613
L5369L
sV629.81
p7614
L3314L
sV701.4
p7615
L3101L
sV250.00
p7616
L243L
sV437.8
p7617
L4995L
sV099.53
p7618
L2349L
sVE965.9
p7619
L7539L
sV436
p7620
L429L
sV703.9
p7621
L490L
sVE967.2
p7622
L5042L
sV380.50
p7623
L6235L
sV623.7
p7624
L3765L
sV667.12
p7625
L5704L
sVE858.5
p7626
L8582L
sV374.30
p7627
L750L
sV191.9
p7628
L3121L
sV719.92
p7629
L8107L
sV171.3
p7630
L5401L
sV314.00
p7631
L725L
sV648.84
p7632
L6898L
sV388.60
p7633
L3686L
sV880.13
p7634
L4237L
sVV12.49
p7635
L1345L
sVE932.1
p7636
L7718L
sV719.81
p7637
L3794L
sV883.2
p7638
L3707L
sV200.16
p7639
L8202L
sV197.3
p7640
L7681L
sV787.22
p7641
L1605L
sV998.33
p7642
L3925L
sV112.84
p7643
L1246L
sV311
p7644
L178L
sV238.79
p7645
L3650L
sVV64.09
p7646
L6023L
sV371.41
p7647
L1857L
sV385.31
p7648
L8385L
sV824.0
p7649
L1361L
sV378.22
p7650
L6218L
sV900.00
p7651
L5725L
sV996.75
p7652
L3926L
sV796.4
p7653
L339L
sV070.59
p7654
L1464L
sVV15.82
p7655
L388L
sV996.80
p7656
L4857L
sV379.27
p7657
L5392L
sVV54.26
p7658
L5572L
sV519.3
p7659
L4350L
sV756.83
p7660
L3875L
sV719.39
p7661
L8994L
sV533.40
p7662
L1584L
sV839.04
p7663
L89L
sV275.9
p7664
L5240L
sV641.11
p7665
L7110L
sV070.0
p7666
L2837L
sV410.00
p7667
L1615L
sVE852.8
p7668
L5985L
sV813.02
p7669
L7739L
sVV70.0
p7670
L308L
sV618.83
p7671
L6885L
sV863.20
p7672
L5900L
sV842.10
p7673
L2441L
sV716.23
p7674
L6582L
sV599.82
p7675
L4140L
sV134.9
p7676
L7229L
sV384.01
p7677
L7742L
sV716.91
p7678
L1541L
sVE815.8
p7679
L7987L
sV729.99
p7680
L1701L
sV525.25
p7681
L4405L
sVV71.2
p7682
L5094L
sV569.42
p7683
L1486L
sV883.1
p7684
L2631L
sV784.52
p7685
L7964L
sV909.2
p7686
L3195L
sV250.0
p7687
L5058L
sV550.10
p7688
L3449L
sVV74.8
p7689
L4493L
sV461.8
p7690
L1787L
sVV85.53
p7691
L2882L
sV577.9
p7692
L2522L
sV218.1
p7693
L2301L
sVE884.0
p7694
L3177L
sV368.8
p7695
L1475L
sV635.92
p7696
L2861L
sV892.0
p7697
L329L
sVE002.1
p7698
L5298L
sV911.0
p7699
L85L
sV715.24
p7700
L7298L
sV995.94
p7701
L5526L
sV825.20
p7702
L1768L
sV257.0
p7703
L5377L
sV292.9
p7704
L3375L
sV913.6
p7705
L8119L
sV707.9
p7706
L2443L
sV345.01
p7707
L3919L
sVE902.9
p7708
L8918L
sV453.41
p7709
L858L
sV141.4
p7710
L5656L
sV698.8
p7711
L3216L
sV781.92
p7712
L1156L
sV151.0
p7713
L4835L
sV942.22
p7714
L8693L
sV306.1
p7715
L392L
sVE812.2
p7716
L7450L
sV410.80
p7717
L3356L
sVE821.0
p7718
L7452L
sV841.9
p7719
L1548L
sV620.1
p7720
L2712L
sVV76.11
p7721
L908L
sVE930.0
p7722
L4230L
sV195.2
p7723
L4085L
sV188.9
p7724
L6498L
sV308.0
p7725
L3094L
sV642.43
p7726
L2580L
sV826.0
p7727
L1664L
sV718.12
p7728
L6803L
sV221.0
p7729
L7625L
sV305.93
p7730
L3353L
sV360.30
p7731
L7218L
sV614.1
p7732
L2713L
sV240.9
p7733
L473L
sV158.9
p7734
L8527L
sV323.81
p7735
L6571L
sV924.11
p7736
L33L
sV213.3
p7737
L7697L
sVV23.2
p7738
L2096L
sV800.15
p7739
L8472L
sV715.93
p7740
L2906L
sV752.39
p7741
L7575L
sVV17.5
p7742
L5116L
sV209.10
p7743
L6966L
sV202.20
p7744
L7442L
sV378.42
p7745
L4879L
sVV46.3
p7746
L1920L
sV537.3
p7747
L1579L
sV756.12
p7748
L1398L
sV785.50
p7749
L1329L
sV711.96
p7750
L6123L
sVE818.9
p7751
L5371L
sV555.0
p7752
L4430L
sV708.2
p7753
L5410L
sV315.32
p7754
L2398L
sV893.2
p7755
L7799L
sV716.92
p7756
L5331L
sV781.99
p7757
L1624L
sV716.14
p7758
L8721L
sV995.3
p7759
L215L
sV093.22
p7760
L6935L
sV425.5
p7761
L5647L
sV831.10
p7762
L8877L
sV411.89
p7763
L2550L
sV756.52
p7764
L4220L
sV718.26
p7765
L7043L
sV296.63
p7766
L2955L
sV277.09
p7767
L2400L
sV215.9
p7768
L6430L
sV157.9
p7769
L4545L
sV897.3
p7770
L4652L
sVV13.03
p7771
L8456L
sV008.42
p7772
L6213L
sV739.9
p7773
L6224L
sV596.6
p7774
L7327L
sVV43.60
p7775
L3900L
sV384.1
p7776
L3297L
sV746.89
p7777
L1289L
sV295.32
p7778
L1699L
sV375.42
p7779
L6465L
sV279.19
p7780
L6841L
sV814.08
p7781
L4747L
sV648.64
p7782
L7415L
sV868.02
p7783
L7337L
sVV17.1
p7784
L4877L
sV794.00
p7785
L7785L
sV202.40
p7786
L6303L
sV396.9
p7787
L2425L
sVV87.31
p7788
L2360L
sV917.5
p7789
L6435L
sV379.34
p7790
L3391L
sV980.0
p7791
L1206L
sV585.4
p7792
L664L
sV828.0
p7793
L6324L
sV520.3
p7794
L7956L
sV814.03
p7795
L1590L
sV190.9
p7796
L7903L
sV115.19
p7797
L8324L
sV660.30
p7798
L8980L
sV362.17
p7799
L7467L
sVV58.64
p7800
L2244L
sVV09.3
p7801
L8283L
sVV78.0
p7802
L571L
sV722.51
p7803
L1297L
sV654.44
p7804
L7708L
sVV48.9
p7805
L8126L
sV998.9
p7806
L3519L
sV301.84
p7807
L4669L
sV648.34
p7808
L8439L
sV685.0
p7809
L1536L
sV576.9
p7810
L6227L
sV803.59
p7811
L8691L
sVV23.89
p7812
L592L
sV381.62
p7813
L3680L
sV070.51
p7814
L1463L
sV276.6
p7815
L2793L
sV356.8
p7816
L2357L
sV378.21
p7817
L4967L
sV389.02
p7818
L2953L
sV295.40
p7819
L3938L
sVV12.54
p7820
L1045L
sVE937.9
p7821
L5942L
sV365.00
p7822
L2324L
sV195.8
p7823
L3129L
sV967.3
p7824
L7124L
sV216.6
p7825
L4247L
sV880.19
p7826
L8854L
sV348.2
p7827
L2853L
sV529.6
p7828
L3669L
sV812.21
p7829
L2943L
sV676.33
p7830
L8158L
sV718.46
p7831
L917L
sV364.61
p7832
L8655L
sV772.5
p7833
L8443L
sV785.59
p7834
L2981L
sV445.02
p7835
L8246L
sV339.41
p7836
L6959L
sV156.1
p7837
L5782L
sV235.3
p7838
L4068L
sV728.11
p7839
L7114L
sV998.02
p7840
L4114L
sV576.5
p7841
L8093L
sV975.2
p7842
L4687L
sV313.9
p7843
L3244L
sV746.82
p7844
L6631L
sV916.6
p7845
L5477L
sV213.8
p7846
L4904L
sV718.87
p7847
L3066L
sVE931.9
p7848
L8185L
sV569.79
p7849
L8772L
sV255.9
p7850
L433L
sV995.27
p7851
L1180L
sV282.64
p7852
L8553L
sV249.81
p7853
L7752L
sV695.3
p7854
L915L
sVV43.61
p7855
L2532L
sV041.41
p7856
L7403L
sV304.01
p7857
L342L
sV676.10
p7858
L7609L
sV333.94
p7859
L684L
sV389.11
p7860
L2248L
sV954.0
p7861
L8963L
sV249.00
p7862
L2338L
sV704.9
p7863
L4483L
sV795.6
p7864
L8009L
sV410.11
p7865
L5382L
sV537.4
p7866
L6702L
sV600
p7867
L7058L
sV295.21
p7868
L4695L
sV376.9
p7869
L4868L
sVV55.8
p7870
L4318L
sV733.41
p7871
L8568L
sV939.2
p7872
L2559L
sV378.35
p7873
L3952L
sV947.0
p7874
L3026L
sV648.40
p7875
L4324L
sV070.52
p7876
L7055L
sV528.5
p7877
L2874L
sV913.5
p7878
L4745L
sV377.42
p7879
L7980L
sVV74.6
p7880
L8740L
sVE016.1
p7881
L6639L
sV997.61
p7882
L7760L
sV765.28
p7883
L2034L
sV994.2
p7884
L6082L
sV277.9
p7885
L2073L
sV661.00
p7886
L8600L
sV692.9
p7887
L1076L
sV637.92
p7888
L3312L
sV121.3
p7889
L8860L
sV770.4
p7890
L7025L
sV077.3
p7891
L4356L
sV274.82
p7892
L4905L
sVV45.02
p7893
L2364L
sV495.7
p7894
L7788L
sV716.37
p7895
L6975L
sVE944.1
p7896
L6452L
sV719.86
p7897
L71L
sV388.00
p7898
L6026L
sV529.8
p7899
L1617L
sV522.4
p7900
L2529L
sV642.53
p7901
L5688L
sV649.13
p7902
L778L
sV998.81
p7903
L5322L
sV730.85
p7904
L7053L
sVV52.9
p7905
L5389L
sV374.51
p7906
L6669L
sV813.21
p7907
L3343L
sV494.0
p7908
L832L
sV716.00
p7909
L7720L
sV383.9
p7910
L4148L
sV787.60
p7911
L1145L
sV711.98
p7912
L6738L
sV807.13
p7913
L2163L
sV540.1
p7914
L4794L
sV304.11
p7915
L602L
sV863.1
p7916
L5277L
sV821.33
p7917
L7537L
sV250.63
p7918
L2641L
sVV85.24
p7919
L4303L
sV371.05
p7920
L8271L
sVE817.1
p7921
L7554L
sV665.31
p7922
L6297L
sV996.76
p7923
L164L
sV682.4
p7924
L1057L
sV522.0
p7925
L3448L
sV410.91
p7926
L2779L
sV569.41
p7927
L3365L
sVE946.3
p7928
L6336L
sV259.2
p7929
L3255L
sV905.7
p7930
L5356L
sV458.29
p7931
L2381L
sV493.22
p7932
L1174L
sV992.6
p7933
L8408L
sV339.02
p7934
L6517L
sV683
p7935
L4119L
sV790.93
p7936
L3291L
sV952.13
p7937
L2689L
sV996.73
p7938
L2060L
sV942.11
p7939
L8588L
sVV15.7
p7940
L2930L
sV274.10
p7941
L4909L
sV346.12
p7942
L4543L
sV974.4
p7943
L6122L
sVV63.1
p7944
L972L
sVV58.89
p7945
L1164L
sV200.80
p7946
L7099L
sV815.04
p7947
L5714L
sVV68.1
p7948
L340L
sV758.89
p7949
L3200L
sV782.0
p7950
L685L
sV284.09
p7951
L3815L
sV573.9
p7952
L974L
sV964.9
p7953
L4203L
sVV10.90
p7954
L2089L
sV474.00
p7955
L2931L
sV680.6
p7956
L3036L
sVE015.0
p7957
L4873L
sV739.1
p7958
L1637L
sV870.8
p7959
L5200L
sVE863.6
p7960
L7239L
sV654.23
p7961
L2099L
sVE005.2
p7962
L4624L
sV342.02
p7963
L4512L
sV710.3
p7964
L4321L
sV623.5
p7965
L562L
sV204.02
p7966
L3641L
sV727.04
p7967
L1790L
sV206.90
p7968
L8970L
sV339.21
p7969
L4719L
sV738.2
p7970
L4829L
sV389.13
p7971
L8336L
sV780.60
p7972
L122L
sV800.20
p7973
L8328L
sV726.69
p7974
L3064L
sV585.5
p7975
L2319L
sV715.38
p7976
L2744L
sV711.20
p7977
L8822L
sV599.3
p7978
L4686L
sV362.15
p7979
L7336L
sV255.8
p7980
L3495L
sVE879.9
p7981
L1708L
sV039.9
p7982
L5963L
sVE927.0
p7983
L83L
sV430
p7984
L3991L
sV654.21
p7985
L1526L
sV377.33
p7986
L6276L
sV441.7
p7987
L5088L
sV173.6
p7988
L8416L
sV726.2
p7989
L1064L
sVE849.6
p7990
L2196L
sV295.12
p7991
L6004L
sVE007.6
p7992
L1951L
sV754.69
p7993
L5810L
sV631.0
p7994
L4813L
sV345.50
p7995
L4420L
sVV10.81
p7996
L6192L
sV524.04
p7997
L6606L
sVV67.2
p7998
L1238L
sVE897
p7999
L4800L
sV016.10
p8000
L7200L
sVV89.04
p8001
L5134L
sV532.40
p8002
L2916L
sV227.0
p8003
L2810L
sVV15.1
p8004
L4464L
sV327.11
p8005
L8531L
sV034.0
p8006
L890L
sVE872.6
p8007
L8034L
sV198.0
p8008
L4900L
sV008.41
p8009
L4136L
sV276.1
p8010
L933L
sV852.03
p8011
L7066L
sV959.1
p8012
L5850L
sV956.3
p8013
L6373L
sV945.34
p8014
L5720L
sV802.29
p8015
L8576L
sV342.91
p8016
L3417L
sV969.2
p8017
L7747L
sV631.8
p8018
L577L
sV599.84
p8019
L2589L
sV414.04
p8020
L1652L
sV531.70
p8021
L4191L
sV396.2
p8022
L3798L
sV649.40
p8023
L4386L
sV453.76
p8024
L5145L
sVE816.1
p8025
L4009L
sV444.21
p8026
L4212L
sV431
p8027
L926L
sV751.3
p8028
L5856L
sV651.01
p8029
L4477L
sVV10.09
p8030
L5907L
sV296.53
p8031
L1082L
sV423.8
p8032
L5744L
sV239.8
p8033
L8853L
sVE866.8
p8034
L8512L
sV575.2
p8035
L3010L
sV715.14
p8036
L1310L
sV478.32
p8037
L6727L
sV379.54
p8038
L7958L
sV459.30
p8039
L931L
sV656.33
p8040
L5669L
sV596.55
p8041
L3841L
sV736.02
p8042
L5349L
sV277.81
p8043
L8445L
sV718.90
p8044
L2452L
sVE019.9
p8045
L7213L
sV692.70
p8046
L2288L
sV455.6
p8047
L463L
sV301.89
p8048
L398L
sV371.73
p8049
L8315L
sV424.2
p8050
L665L
sV290.43
p8051
L6731L
sV883.0
p8052
L394L
sV114.0
p8053
L5486L
sV802.26
p8054
L8062L
sV645.13
p8055
L3181L
sV782.5
p8056
L2903L
sV786.52
p8057
L390L
sVE821.1
p8058
L6128L
sV250.22
p8059
L1383L
sV363.34
p8060
L3889L
sV440.20
p8061
L424L
sV803.26
p8062
L5314L
sV721.9
p8063
L8652L
sV642.62
p8064
L8744L
sV654.33
p8065
L5269L
sV263.8
p8066
L5095L
sV274.11
p8067
L5876L
sV569.62
p8068
L3518L
sV070.71
p8069
L4944L
sV768.70
p8070
L7168L
sV622.9
p8071
L4470L
sV474.11
p8072
L893L
sV441.2
p8073
L1870L
sV488.12
p8074
L3440L
sV281.2
p8075
L4205L
sV757.6
p8076
L8000L
sV659.71
p8077
L2345L
sV934.8
p8078
L6142L
sV873.39
p8079
L7769L
sV416.2
p8080
L4750L
sV716.57
p8081
L4913L
sV714.33
p8082
L6912L
sV806.4
p8083
L3458L
sV346.92
p8084
L2545L
sV389.20
p8085
L2444L
sVV85.44
p8086
L414L
sV362.04
p8087
L2080L
sV295.62
p8088
L1844L
sVV72.9
p8089
L4160L
sV593.89
p8090
L548L
sV879.6
p8091
L3450L
sVE825.1
p8092
L7238L
sV730.07
p8093
L1422L
sV378.05
p8094
L4710L
sV870.0
p8095
L6563L
sV131.00
p8096
L3699L
sVV49.84
p8097
L170L
sV747.29
p8098
L8470L
sV173.12
p8099
L7967L
sV410.41
p8100
L2685L
sVE920.1
p8101
L7934L
sV758
p8102
L3894L
sV763.9
p8103
L6666L
sV710
p8104
L8300L
sV362.56
p8105
L211L
sVV76.10
p8106
L301L
sV078.11
p8107
L1956L
sV716.50
p8108
L904L
sV410.21
p8109
L5927L
sV126.9
p8110
L8499L
sV845.19
p8111
L4600L
sV443.2
p8112
L8473L
sV524.89
p8113
L8654L
sV719.57
p8114
L3672L
sV440.29
p8115
L3081L
sV718.53
p8116
L7108L
sV726.63
p8117
L8450L
sV654.13
p8118
L4816L
sV312.89
p8119
L1738L
sV291.0
p8120
L1199L
sV665.93
p8121
L7254L
sV975.5
p8122
L8345L
sV782.62
p8123
L2294L
sV914.4
p8124
L5972L
sV728.10
p8125
L7608L
sV963.8
p8126
L1585L
sV659.81
p8127
L5296L
sV142.1
p8128
L8419L
sVV27.2
p8129
L4475L
sV376.11
p8130
L6425L
sV268.0
p8131
L6893L
sVV23.84
p8132
L4269L
sV388.40
p8133
L3612L
sV723.2
p8134
L4169L
sV862.29
p8135
L106L
sV564.4
p8136
L7517L
sVV16.43
p8137
L6641L
sV210.3
p8138
L7845L
sV802.5
p8139
L7032L
sV333.2
p8140
L3158L
sV373.12
p8141
L2239L
sVV74.9
p8142
L4727L
sV377.9
p8143
L8112L
sV346.1
p8144
L5767L
sV414.9
p8145
L1020L
sV365.05
p8146
L4826L
sV335.20
p8147
L3002L
sV094.0
p8148
L3053L
sVV59.02
p8149
L5443L
sV327.10
p8150
L4242L
sV696.3
p8151
L4289L
sV705.81
p8152
L3175L
sV786.02
p8153
L2027L
sV881.12
p8154
L6861L
sV750.3
p8155
L4925L
sV290.8
p8156
L7890L
sV533.50
p8157
L6137L
sV173.52
p8158
L3523L
sV667.04
p8159
L4554L
sV372.64
p8160
L7164L
sV214.1
p8161
L1560L
sV989.89
p8162
L2627L
sV729.5
p8163
L78L
sV928.8
p8164
L8630L
sV372.05
p8165
L1017L
sV949.2
p8166
L6104L
sV135
p8167
L1783L
sV532.70
p8168
L6424L
sV522.9
p8169
L8732L
sV041.11
p8170
L1356L
sV434.10
p8171
L5228L
sV880.02
p8172
L8642L
sV374.12
p8173
L8335L
sV478.24
p8174
L6065L
sV216.4
p8175
L1792L
sVV28.2
p8176
L5671L
sV252.9
p8177
L5905L
sV552.21
p8178
L2224L
sV304.51
p8179
L8349L
sV366.20
p8180
L3396L
sV945.15
p8181
L3941L
sVV65.41
p8182
L3663L
sV492.0
p8183
L861L
sV767.4
p8184
L7755L
sV304.50
p8185
L6312L
sV591
p8186
L669L
sV719.12
p8187
L8148L
sV917.9
p8188
L6694L
sV873.43
p8189
L2176L
sV596.51
p8190
L1010L
sV296.51
p8191
L736L
sV238.6
p8192
L4326L
sV387.0
p8193
L6278L
sV456.6
p8194
L7404L
sV368.46
p8195
L2718L
sV707.13
p8196
L2322L
sV625.3
p8197
L636L
sVV14.1
p8198
L1450L
sV793.89
p8199
L2087L
sV724.3
p8200
L794L
sV915.4
p8201
L3778L
sVE813.6
p8202
L5390L
sVE005.3
p8203
L3922L
sVV49.87
p8204
L2286L
sV599.72
p8205
L410L
sV379.40
p8206
L3397L
sVV13.8
p8207
L4502L
sV680.8
p8208
L3866L
sV793.19
p8209
L62L
sV364.42
p8210
L2383L
sV787.62
p8211
L4598L
sV801.06
p8212
L4723L
sV493.91
p8213
L2821L
sV215.4
p8214
L5541L
sV969.00
p8215
L5292L
sV341.9
p8216
L3842L
sV360.19
p8217
L4164L
sV463
p8218
L421L
sV257.8
p8219
L5893L
sV348.30
p8220
L1619L
sVV10.82
p8221
L2940L
sV094.9
p8222
L6145L
sV297.8
p8223
L5855L
sV959.11
p8224
L99L
sV715.11
p8225
L1136L
sV657.00
p8226
L6816L
sV722.93
p8227
L467L
sV428.0
p8228
L185L
sV174.8
p8229
L3330L
sV511.0
p8230
L389L
sV441.3
p8231
L7861L
sV786.06
p8232
L1049L
sV704.42
p8233
L8757L
sV942.10
p8234
L6469L
sV603.0
p8235
L7515L
sV395.1
p8236
L3424L
sV996.7
p8237
L6239L
sVV58.68
p8238
L7421L
sV275.49
p8239
L3532L
sV304.72
p8240
L5973L
sVV62.54
p8241
L2284L
sVE967.7
p8242
L5139L
sV237.3
p8243
L5336L
sV655.01
p8244
L8048L
sV996.54
p8245
L1789L
sV648.41
p8246
L2103L
sV788.37
p8247
L5931L
sV628.1
p8248
L8526L
sV616.3
p8249
L5483L
sV969.71
p8250
L8451L
sV009.3
p8251
L3402L
sV530.81
p8252
L43L
sV989.4
p8253
L5837L
sV282.61
p8254
L6650L
sV222.2
p8255
L4334L
sV146.9
p8256
L5660L
sV473.3
p8257
L3110L
sV639.3
p8258
L4793L
sV293.81
p8259
L5494L
sV944.16
p8260
L4802L
sV522.5
p8261
L1661L
sV503
p8262
L8507L
sV801.36
p8263
L6038L
sV150.5
p8264
L4834L
sV381.03
p8265
L7663L
sV279.2
p8266
L3799L
sV464.20
p8267
L5982L
sV173.61
p8268
L6013L
sV714.89
p8269
L5334L
sVV18.8
p8270
L8397L
sV173.22
p8271
L8880L
sV288.61
p8272
L338L
sV726.32
p8273
L1522L
sV253.3
p8274
L3122L
sV453.71
p8275
L4655L
sV581.3
p8276
L8384L
sV610.8
p8277
L4081L
sV292.83
p8278
L8457L
sV751.5
p8279
L1122L
sV749.10
p8280
L8466L
sV599.71
p8281
L2028L
sV493.10
p8282
L1904L
sV447.71
p8283
L6064L
sV965.9
p8284
L7318L
sVV58.82
p8285
L126L
sV944.12
p8286
L7645L
sV659.90
p8287
L3096L
sVV76.41
p8288
L208L
sV447.1
p8289
L2568L
sV790.5
p8290
L698L
sV600.21
p8291
L1088L
sV850.4
p8292
L7750L
sVV56.1
p8293
L4023L
sV782.3
p8294
L133L
sV300.10
p8295
L4279L
sV943.1
p8296
L8116L
sV594.0
p8297
L3069L
sV296.36
p8298
L709L
sV038.42
p8299
L690L
sV459
p8300
L7501L
sV306.4
p8301
L4988L
sV926.9
p8302
L6395L
sVV43.21
p8303
L2799L
sV289.3
p8304
L3573L
sV404.91
p8305
L4991L
sV154.1
p8306
L837L
sV203.80
p8307
L8702L
sVV21.30
p8308
L7179L
sV010.11
p8309
L8094L
sV652.41
p8310
L8356L
sV375.51
p8311
L8653L
sV300.82
p8312
L1878L
sV212.4
p8313
L6662L
sV365.21
p8314
L6615L
sV213.2
p8315
L3438L
sV753.13
p8316
L2830L
sVV07.59
p8317
L5789L
sVE818.8
p8318
L8933L
sV453.8
p8319
L8131L
sVE866.9
p8320
L4362L
sVE881.0
p8321
L3784L
sV799.55
p8322
L6330L
sV333.0
p8323
L3883L
sV369.25
p8324
L5230L
sVE919.4
p8325
L8930L
sV770.14
p8326
L2683L
sVV64.00
p8327
L5602L
sV296.89
p8328
L1747L
sVV23.81
p8329
L609L
sV438.40
p8330
L7793L
sV943.15
p8331
L3940L
sV427.89
p8332
L42L
sV288.50
p8333
L1648L
sV874.9
p8334
L5901L
sV510.9
p8335
L1328L
sV404.12
p8336
L6033L
sV525.10
p8337
L3377L
sV368.14
p8338
L3895L
sV733.5
p8339
L3054L
sV364.76
p8340
L8534L
sV438.7
p8341
L5416L
sV784.8
p8342
L7310L
sV601.2
p8343
L6088L
sV780.99
p8344
L148L
sV943.29
p8345
L7837L
sV716.61
p8346
L3978L
sV357.7
p8347
L5779L
sV233.4
p8348
L4515L
sV709.3
p8349
L4550L
sV710.8
p8350
L5245L
sV300.29
p8351
L5544L
sV527.7
p8352
L540L
sV733.99
p8353
L1812L
sV604.0
p8354
L7580L
sV354.1
p8355
L2392L
sV426.50
p8356
L4193L
sV799.24
p8357
L3610L
sV032.85
p8358
L8160L
sVV72.62
p8359
L1362L
sV196.0
p8360
L2039L
sVV45.00
p8361
L7801L
sV719.01
p8362
L3162L
sVE860.0
p8363
L3301L
sV279.03
p8364
L6843L
sV361.06
p8365
L8135L
sV382.00
p8366
L997L
sV525.63
p8367
L7758L
sV523.32
p8368
L6837L
sV173.70
p8369
L7736L
sV977.3
p8370
L4497L
sVV13.29
p8371
L599L
sV680.1
p8372
L3138L
sV793.4
p8373
L728L
sVE934.6
p8374
L4538L
sV864.02
p8375
L9019L
sVV09.80
p8376
L2591L
sV667.14
p8377
L8669L
sV070.42
p8378
L7620L
sV465.0
p8379
L3657L
sV995.23
p8380
L4917L
sV282.9
p8381
L7990L
sV526.9
p8382
L4126L
sV371.21
p8383
L6175L
sV774.4
p8384
L6490L
sVV10.46
p8385
L4517L
sV367.51
p8386
L4592L
sV250.40
p8387
L677L
sVE818.7
p8388
L7908L
sV569.60
p8389
L1732L
sV780.3
p8390
L5500L
sVV48.4
p8391
L6342L
sV987.9
p8392
L3021L
sV424.91
p8393
L3860L
sV344.00
p8394
L101L
sVV06.6
p8395
L1723L
sVV25.04
p8396
L2265L
sV600.91
p8397
L1922L
sV649.33
p8398
L6002L
sV955.8
p8399
L8778L
sV848.41
p8400
L5069L
sV871.9
p8401
L3186L
sV331.82
p8402
L3881L
sVE008.3
p8403
L7634L
sVV11.1
p8404
L2114L
sV765.10
p8405
L5271L
sV342.01
p8406
L5430L
sV245.9
p8407
L1534L
sV571.3
p8408
L961L
sV175.9
p8409
L7470L
sV815.02
p8410
L2832L
sVV77.0
p8411
L569L
sV863.39
p8412
L7322L
sV133.0
p8413
L1537L
sV289.59
p8414
L3366L
sV473.2
p8415
L1540L
sV611.79
p8416
L585L
sV661.91
p8417
L5670L
sV716.93
p8418
L2754L
sVV10.50
p8419
L8338L
sV362.84
p8420
L2722L
sV278.4
p8421
L2361L
sV112.9
p8422
L2592L
sV304.82
p8423
L5642L
sV996.53
p8424
L2613L
sV714.2
p8425
L5205L
sV652.81
p8426
L7407L
sV426.54
p8427
L8219L
sV041.03
p8428
L1621L
sV791.5
p8429
L2648L
sV754.35
p8430
L7051L
sV306.50
p8431
L8065L
sVV76.50
p8432
L3913L
sVV58.49
p8433
L2062L
sVV61.23
p8434
L2875L
sV307.46
p8435
L4899L
sV813.10
p8436
L8138L
sVE932.8
p8437
L5770L
sV374.84
p8438
L4771L
sVE935.8
p8439
L7866L
sV071
p8440
L8043L
sV793.7
p8441
L1029L
sV838.06
p8442
L7235L
sVE905.0
p8443
L8599L
sV053.12
p8444
L4911L
sVE852.9
p8445
L6907L
sV300.15
p8446
L5421L
sV276.5
p8447
L6938L
sV897.7
p8448
L2649L
sV287.5
p8449
L529L
sV032.82
p8450
L8354L
sV188.0
p8451
L8033L
sV070.1
p8452
L3756L
sV438.50
p8453
L5944L
sV558.42
p8454
L8633L
sV242.81
p8455
L7432L
sV259.4
p8456
L5216L
sVV56.31
p8457
L6016L
sV789.43
p8458
L8915L
sV703.8
p8459
L231L
sV621.9
p8460
L3764L
sVV23.3
p8461
L6354L
sV527.5
p8462
L5625L
sV785.1
p8463
L224L
sVV01.89
p8464
L894L
sV353.8
p8465
L5320L
sV814.05
p8466
L6378L
sVE860.9
p8467
L6146L
sVE917.7
p8468
L253L
sV364.10
p8469
L1489L
sV477.8
p8470
L1068L
sV332.1
p8471
L1558L
sV996.74
p8472
L1683L
sV737.9
p8473
L3006L
sV281.3
p8474
L4246L
sV192.3
p8475
L7458L
sV362.02
p8476
L2064L
sVV75.9
p8477
L713L
sV361.01
p8478
L5431L
sV823.10
p8479
L7749L
sV916
p8480
L5589L
sV790.92
p8481
L1284L
sV244.0
p8482
L2700L
sV945.24
p8483
L3696L
sV611.6
p8484
L2583L
sV790.09
p8485
L3528L
sV643.03
p8486
L770L
sV010.91
p8487
L4002L
sV963.0
p8488
L5294L
sVV14.6
p8489
L913L
sVE858.8
p8490
L5771L
sV648.43
p8491
L579L
sV904.0
p8492
L2850L
sV362.61
p8493
L6951L
sV250.03
p8494
L1181L
sV715.37
p8495
L1100L
sV312.20
p8496
L5420L
sV253.4
p8497
L6523L
sVV07.2
p8498
L5645L
sV410.72
p8499
L3872L
sV236.5
p8500
L3546L
sV378.10
p8501
L2085L
sVV41.3
p8502
L7192L
sV695.50
p8503
L6777L
sV209.52
p8504
L7709L
sV440.1
p8505
L3553L
sVV42.82
p8506
L5598L
sV256.2
p8507
L4182L
sV378.86
p8508
L6449L
sV374.31
p8509
L5192L
sV533.91
p8510
L4192L
sV371.40
p8511
L8938L
sV996.51
p8512
L4445L
sV719.55
p8513
L1902L
sV579.9
p8514
L2305L
sV791.0
p8515
L1866L
sV041.6
p8516
L1734L
sV307.23
p8517
L4500L
sV993.3
p8518
L6956L
sV943.22
p8519
L8862L
sV682.9
p8520
L300L
sV795.09
p8521
L4629L
sVV84.89
p8522
L4049L
sV453.2
p8523
L6931L
sV121.1
p8524
L7174L
sV816.10
p8525
L6716L
sVE001.1
p8526
L5428L
sV009.0
p8527
L3623L
sV851.40
p8528
L7743L
sV535.01
p8529
L3236L
sV375.56
p8530
L1672L
sV435
p8531
L7118L
sV634.11
p8532
L8874L
sV942.29
p8533
L7273L
sV336.0
p8534
L2231L
sV378.41
p8535
L5272L
sV271.2
p8536
L6927L
sVV58.8
p8537
L7306L
sV480.1
p8538
L3468L
sV364.51
p8539
L3488L
sV320.9
p8540
L3797L
sV285.3
p8541
L871L
sV790.6
p8542
L131L
sV646.63
p8543
L779L
sV831.01
p8544
L1780L
sV710.4
p8545
L2310L
sV276.8
p8546
L21L
sV646.90
p8547
L5133L
sV161.1
p8548
L7469L
sV295.52
p8549
L4561L
sV996.86
p8550
L4542L
sVE936.3
p8551
L3012L
sVV87.41
p8552
L180L
sV305.80
p8553
L4791L
sV599.0
p8554
L144L
sV526.89
p8555
L1572L
sV800.06
p8556
L8689L
sV795.89
p8557
L863L
sV705.83
p8558
L1561L
sV270.4
p8559
L4778L
sV717.84
p8560
L7062L
sVV44.52
p8561
L8305L
sV405.09
p8562
L5764L
sV629.20
p8563
L6986L
sV575.5
p8564
L6196L
sV627.8
p8565
L1313L
sV130.9
p8566
L4467L
sV780.2
p8567
L51L
sVV04.89
p8568
L715L
sV345.41
p8569
L1968L
sV739.6
p8570
L4871L
sVV58.43
p8571
L2825L
sV323.41
p8572
L1969L
sV692.72
p8573
L3990L
sV854.15
p8574
L3414L
sV746.09
p8575
L8101L
sV698.9
p8576
L322L
sV249.11
p8577
L8598L
sV711.57
p8578
L7067L
sVV07.9
p8579
L3591L
sV237.0
p8580
L2002L
sVE900.0
p8581
L7914L
sV652.21
p8582
L2965L
sV998.32
p8583
L878L
sV955.2
p8584
L2021L
sV645.21
p8585
L8129L
sV239.7
p8586
L4297L
sV327.21
p8587
L1176L
sV733.20
p8588
L3789L
sVL00
p8589
L8120L
sV656.63
p8590
L3084L
sVE905.3
p8591
L1919L
sV270.2
p8592
L8224L
sV205.30
p8593
L6821L
sV754.52
p8594
L7026L
sV803.20
p8595
L8161L
sV648.01
p8596
L2848L
sV278.02
p8597
L404L
sV415.12
p8598
L1456L
sV648.53
p8599
L7534L
sV719.53
p8600
L3430L
sV381.3
p8601
L3422L
sVV45.51
p8602
L560L
sV823.02
p8603
L4720L
sVE015.1
p8604
L7688L
sV531.20
p8605
L8811L
sV739.2
p8606
L1638L
sV078.12
p8607
L1364L
sV719.04
p8608
L4844L
sV054.0
p8609
L3325L
sV629.0
p8610
L7820L
sV766.1
p8611
L8712L
sV368.52
p8612
L6616L
sV305.71
p8613
L2108L
sV007.9
p8614
L8950L
sV535.60
p8615
L618L
sV648.61
p8616
L5153L
sV789.2
p8617
L889L
sV671.40
p8618
L3289L
sV359.89
p8619
L3805L
sV453.72
p8620
L1595L
sV078.3
p8621
L6568L
sV395.2
p8622
L8295L
sV440.8
p8623
L4217L
sV675.20
p8624
L6445L
sV355.2
p8625
L4357L
sV521.30
p8626
L5164L
sV926.12
p8627
L8340L
sV363.51
p8628
L2269L
sV365.15
p8629
L7116L
sV891.2
p8630
L6918L
sV356.4
p8631
L175L
sV145.9
p8632
L8247L
sV794.15
p8633
L4855L
sV806.21
p8634
L8592L
sV525.50
p8635
L4508L
sVE879.6
p8636
L3059L
sV730.00
p8637
L1733L
sVV64.43
p8638
L4166L
sVV55.0
p8639
L146L
sV756.10
p8640
L1302L
sV997.99
p8641
L5020L
sV384.21
p8642
L2401L
sV733.16
p8643
L5577L
sV851.00
p8644
L6041L
sV712.33
p8645
L5887L
sV719.10
p8646
L4942L
sV369.18
p8647
L7144L
sV337.22
p8648
L4999L
sV200.42
p8649
L6748L
sVE002.9
p8650
L8350L
sV593.0
p8651
L8317L
sV362.53
p8652
L3602L
sV600.20
p8653
L307L
sV104.9
p8654
L6481L
sV518.6
p8655
L6328L
sV806.16
p8656
L8948L
sVE813.0
p8657
L2607L
sV371.89
p8658
L7690L
sV873.54
p8659
L6860L
sV652.90
p8660
L8736L
sV290.3
p8661
L2886L
sV288.09
p8662
L3264L
sVV18.3
p8663
L5700L
sVE819.2
p8664
L6093L
sV521.09
p8665
L5711L
sV841.2
p8666
L5584L
sV398.90
p8667
L4273L
sV255.3
p8668
L3167L
sV117.3
p8669
L3647L
sV927.11
p8670
L8855L
sV770.6
p8671
L7597L
sV733.44
p8672
L7753L
sV719.7
p8673
L228L
sV692.3
p8674
L3543L
sV825.23
p8675
L3984L
sV715.10
p8676
L1906L
sV381.60
p8677
L4178L
sV359.9
p8678
L2687L
sV366.52
p8679
L1059L
sV701.1
p8680
L862L
sV754.32
p8681
L3598L
sVV67.51
p8682
L854L
sV338.2
p8683
L7389L
sV433.00
p8684
L6612L
sV736.76
p8685
L7178L
sV718.80
p8686
L5203L
sV648.21
p8687
L4476L
sVE829.8
p8688
L5361L
sV575.3
p8689
L4623L
sV915.9
p8690
L4628L
sV354.2
p8691
L1461L
sV582.1
p8692
L6730L
sV583.0
p8693
L4153L
sVV58.32
p8694
L1446L
sV782.7
p8695
L903L
sV874.5
p8696
L8711L
sV362.83
p8697
L967L
sVE939.4
p8698
L3896L
sVV07.1
p8699
L1819L
sVV65.5
p8700
L2877L
sV789.47
p8701
L5355L
sV453.81
p8702
L803L
sV319.00
p8703
L5726L
sV442.3
p8704
L2849L
sVV61.07
p8705
L6007L
sV367.50
p8706
L8136L
sV492.8
p8707
L277L
sVV02.62
p8708
L1047L
sV655.70
p8709
L5352L
sV943.23
p8710
L6438L
sV132.0
p8711
L2076L
sV259.0
p8712
L6779L
sV518.5
p8713
L5281L
sV453.40
p8714
L1521L
sVV61.5
p8715
L5053L
sV380.9
p8716
L6393L
sV312.03
p8717
L3821L
sV189.9
p8718
L6532L
sV433.11
p8719
L3749L
sV590.00
p8720
L6847L
sVE906.4
p8721
L2926L
sVE876.8
p8722
L2468L
sV648.81
p8723
L3499L
sV996.60
p8724
L1713L
sV378.81
p8725
L6450L
sV991.6
p8726
L1223L
sV789.65
p8727
L1953L
sV694.9
p8728
L5048L
sV930.1
p8729
L1037L
sV333.92
p8730
L6939L
sV656.11
p8731
L4603L
sV584.7
p8732
L7907L
sV806.25
p8733
L7388L
sVV65.43
p8734
L5234L
sV727.43
p8735
L1855L
sV366.30
p8736
L1631L
sV887.4
p8737
L7544L
sV279.01
p8738
L7895L
sV758.5
p8739
L3466L
sVV10.72
p8740
L8156L
sV812.00
p8741
L754L
sV160.9
p8742
L8677L
sV355.3
p8743
L2118L
sV577.2
p8744
L2771L
sV290.10
p8745
L762L
sV362.36
p8746
L3294L
sV675.13
p8747
L6644L
sV724.1
p8748
L443L
sV346.73
p8749
L3859L
sV303.90
p8750
L63L
sV478.25
p8751
L3725L
sV259.9
p8752
L930L
sV041.02
p8753
L2440L
sV655.91
p8754
L7082L
sV149.0
p8755
L3722L
sV697.0
p8756
L4575L
sV112.83
p8757
L4881L
sV277.85
p8758
L5025L
sV277.87
p8759
L3915L
sV162.5
p8760
L928L
sVE968.1
p8761
L3660L
sV913.3
p8762
L6693L
sV493.20
p8763
L1015L
sV692.89
p8764
L2914L
sVV17.3
p8765
L2240L
sVV66.0
p8766
L7052L
sV992.0
p8767
L7351L
sV331.4
p8768
L2557L
sV745.10
p8769
L7208L
sV053.29
p8770
L6250L
sV331.89
p8771
L4307L
sV695.4
p8772
L2509L
sVV65.2
p8773
L1827L
sV508.0
p8774
L5863L
sV717.43
p8775
L5252L
sV447.2
p8776
L7565L
sV345.9
p8777
L4848L
sV760.76
p8778
L8792L
sV997.39
p8779
L5756L
sVE915
p8780
L2669L
sV730.11
p8781
L6739L
sV207.00
p8782
L8258L
sV191.7
p8783
L5191L
sV910.7
p8784
L4843L
sV900.9
p8785
L3628L
sV535.11
p8786
L1322L
sV842.11
p8787
L8703L
sV760.79
p8788
L7571L
sV353.6
p8789
L1427L
sV985.8
p8790
L2978L
sV996.43
p8791
L8486L
sVV04.5
p8792
L8044L
sV691.0
p8793
L2041L
sVE851
p8794
L8322L
sV192.1
p8795
L6351L
sVV58.65
p8796
L682L
sVE883.0
p8797
L5299L
sVV54.16
p8798
L1393L
sV881.10
p8799
L1346L
sVV45.79
p8800
L448L
sV372.74
p8801
L8871L
sV661.21
p8802
L2256L
sV173.00
p8803
L6187L
sV989.6
p8804
L2629L
sV780.33
p8805
L12L
sV841.0
p8806
L2335L
sV783.21
p8807
L245L
sVV03.9
p8808
L8396L
sV718.58
p8809
L1882L
sV960.5
p8810
L5274L
sV131.01
p8811
L3348L
sV447.70
p8812
L6681L
sV590.9
p8813
L4317L
sV372.45
p8814
L8682L
sV639.8
p8815
L7603L
sV788.50
p8816
L7145L
sVV76.44
p8817
L346L
sVE921.8
p8818
L6437L
sV593.6
p8819
L8627L
sV867.2
p8820
L7028L
sV922.8
p8821
L3364L
sV854.19
p8822
L8879L
sV099.54
p8823
L4741L
sV296.56
p8824
L4123L
sV664.51
p8825
L3501L
sVV06.8
p8826
L2433L
sV969.03
p8827
L5304L
sVV45.4
p8828
L1299L
sV599.1
p8829
L6029L
sV303.91
p8830
L1197L
sVV42.81
p8831
L3116L
sVV14.7
p8832
L4410L
sV995.91
p8833
L547L
sV293.1
p8834
L647L
sVE950.0
p8835
L2995L
sV792.4
p8836
L7683L
sV038.49
p8837
L1736L
sV389.15
p8838
L2049L
sV346.71
p8839
L1808L
sV656.51
p8840
L3910L
sVV62.29
p8841
L5830L
sV728.19
p8842
L3429L
sV225.2
p8843
L2812L
sV154.2
p8844
L5226L
sV826.1
p8845
L4364L
sV765.27
p8846
L7860L
sV762.6
p8847
L6300L
sVV61.11
p8848
L6599L
sV792.3
p8849
L7841L
sV360.42
p8850
L5178L
sV928.20
p8851
L4305L
sV716.9
p8852
L8922L
sVV85.31
p8853
L2533L
sVV06.1
p8854
L439L
sV647.20
p8855
L8420L
sV370.62
p8856
L6477L
sV727.41
p8857
L3145L
sVE878.2
p8858
L2474L
sV805.2
p8859
L814L
sVE942.2
p8860
L8906L
sV923.21
p8861
L1275L
sV656.90
p8862
L8886L
sV524.70
p8863
L8220L
sV252.02
p8864
L5186L
sV642.54
p8865
L5467L
sV564.09
p8866
L1640L
sV980.3
p8867
L7282L
sV362.65
p8868
L4916L
sV215.6
p8869
L6839L
sV795.15
p8870
L5393L
sV053.14
p8871
L7726L
sV379.00
p8872
L6521L
sV869.1
p8873
L6092L
sV495.8
p8874
L932L
sV737.20
p8875
L1107L
sV738.9
p8876
L5673L
sVV54.19
p8877
L830L
sV365.51
p8878
L6357L
sV995.80
p8879
L3304L
sV578.0
p8880
L2479L
sV384.09
p8881
L6263L
sV810.01
p8882
L6776L
sV038.2
p8883
L4863L
sV172.3
p8884
L6188L
sV983.9
p8885
L6106L
sV040.42
p8886
L7401L
sV368.9
p8887
L1196L
sVV62.85
p8888
L2625L
sV451.82
p8889
L4854L
sV788.62
p8890
L4333L
sV085.1
p8891
L4263L
sV266.9
p8892
L2637L
sV171.40
p8893
L8268L
sV646.44
p8894
L8572L
sV428.41
p8895
L3345L
sV648.70
p8896
L7646L
sV385.83
p8897
L3480L
sV173.20
p8898
L6233L
sV928.11
p8899
L5686L
sV433.20
p8900
L1612L
sV038.12
p8901
L1353L
sVE950.3
p8902
L1205L
sV366.17
p8903
L3555L
sVV44.2
p8904
L3062L
sV323.9
p8905
L2537L
sV698.3
p8906
L1977L
sV576.1
p8907
L3426L
sV224.1
p8908
L6795L
sV662.11
p8909
L8085L
sV323.61
p8910
L7786L
sV784.69
p8911
L3243L
sV235.8
p8912
L4641L
sV456.5
p8913
L8437L
sV813.51
p8914
L4171L
sVV49.65
p8915
L5497L
sV446.6
p8916
L6595L
sV144.9
p8917
L2170L
sV799.29
p8918
L5165L
sVE942.5
p8919
L8362L
sVE826.9
p8920
L5722L
sV374.34
p8921
L3208L
sV719.63
p8922
L3285L
sV224.0
p8923
L4304L
sV728.85
p8924
L512L
sVV25.02
p8925
L1756L
sV528.1
p8926
L8514L
sV732.8
p8927
L4134L
sV991.3
p8928
L8823L
sV389.05
p8929
L3677L
sVV53.39
p8930
L2792L
sV922.32
p8931
L1467L
sV918.9
p8932
L5578L
sV878.9
p8933
L6580L
sV494.1
p8934
L2223L
sV250.4
p8935
L8797L
sV022.2
p8936
L2072L
sV574.50
p8937
L1113L
sV845.01
p8938
L3067L
sV718.97
p8939
L2204L
sV779.31
p8940
L5270L
sVV43.65
p8941
L1146L
sV727.02
p8942
L4071L
sV588.9
p8943
L3072L
sV780.32
p8944
L4971L
sV596.82
p8945
L6426L
sV345.71
p8946
L8716L
sV728.2
p8947
L1566L
sVE814.6
p8948
L7451L
sV921.1
p8949
L4L
sV996.42
p8950
L3351L
sV078.10
p8951
L387L
sV728.4
p8952
L3969L
sV352.6
p8953
L7909L
sV718.45
p8954
L919L
sV250.82
p8955
L1376L
sV789.07
p8956
L412L
sV359.79
p8957
L7215L
sV746.87
p8958
L5640L
sV346.00
p8959
L1684L
sV787.02
p8960
L384L
sVV73.99
p8961
L5057L
sV799.54
p8962
L8474L
sVV45.59
p8963
L7183L
sV386.01
p8964
L6819L
sV752.51
p8965
L3476L
sV970.81
p8966
L2866L
sV624.5
p8967
L3335L
sV250.92
p8968
L662L
sV446.20
p8969
L6486L
sV738.6
p8970
L2097L
sVE920.4
p8971
L5894L
sV783.4
p8972
L5005L
sV403.90
p8973
L232L
sV327.43
p8974
L8733L
sV294.20
p8975
L305L
sV527.1
p8976
L6629L
sV224.3
p8977
L5514L
sV386.2
p8978
L4292L
sV552.29
p8979
L6547L
sV996.41
p8980
L1715L
sV724.9
p8981
L1885L
sVE819.8
p8982
L4767L
sV653.73
p8983
L6744L
sV195.4
p8984
L6408L
sV714.31
p8985
L7426L
sVV29.1
p8986
L6132L
sV568.0
p8987
L1727L
sV777.9
p8988
L6255L
sV202.70
p8989
L5759L
sVV02.60
p8990
L7719L
sVV26.31
p8991
L6049L
sV238.3
p8992
L3691L
sV306.0
p8993
L6764L
sV239.5
p8994
L4040L
sV618.4
p8995
L5489L
sV372.34
p8996
L4780L
sV726.30
p8997
L6930L
sV648.83
p8998
L781L
sV795.19
p8999
L5978L
sV357.1
p9000
L5860L
sV359.1
p9001
L1592L
sV524.50
p9002
L5517L
sV235.7
p9003
L4374L
sVV87.2
p9004
L4090L
sVE862.1
p9005
L7171L
sV488.0
p9006
L8753L
sV686.09
p9007
L8169L
sV661.23
p9008
L5351L
sV427.1
p9009
L1287L
sV099.9
p9010
L3099L
sV396.1
p9011
L2410L
sV383.00
p9012
L5575L
sV274.0
p9013
L8081L
sV795.04
p9014
L4798L
sV162.0
p9015
L7419L
sV852.40
p9016
L6200L
sV692.79
p9017
L3210L
sV642.41
p9018
L2578L
sV789.02
p9019
L777L
sV379.33
p9020
L7950L
sV159.8
p9021
L5751L
sV788.91
p9022
L2337L
sV249.10
p9023
L2272L
sV008.45
p9024
L222L
sVE850.1
p9025
L4728L
sV524.60
p9026
L1854L
sV362.11
p9027
L2079L
sVV43.82
p9028
L1963L
sV805.02
p9029
L2040L
sV572.8
p9030
L976L
sV238.4
p9031
L552L
sV641.83
p9032
L6001L
s.