(dp0
V303.00
p1
L378L
sV309.8
p2
L6458L
sV054.73
p3
L4715L
sV696.1
p4
L1427L
sV787.01
p5
L164L
sVV58.49
p6
L1796L
sV790.3
p7
L1620L
sV735.8
p8
L883L
sV940.4
p9
L7406L
sV259.3
p10
L4744L
sV792.5
p11
L3504L
sV377.12
p12
L7398L
sV365.63
p13
L3971L
sV874.2
p14
L7140L
sV765.26
p15
L7152L
sV621.33
p16
L5935L
sV197.7
p17
L345L
sV394.9
p18
L1478L
sV654.63
p19
L7303L
sV551.3
p20
L4246L
sV426.12
p21
L2528L
sV718.70
p22
L2616L
sV333.79
p23
L4691L
sV346.20
p24
L3661L
sVV68.81
p25
L2855L
sV318.0
p26
L262L
sVE982.9
p27
L6706L
sV719.95
p28
L1745L
sVE895
p29
L5729L
sV703.0
p30
L123L
sV709.9
p31
L1076L
sV793.99
p32
L2295L
sVV25.8
p33
L5838L
sV788.41
p34
L537L
sV719.67
p35
L5530L
sV049.9
p36
L5603L
sV845.09
p37
L3415L
sV307.0
p38
L4873L
sV296.99
p39
L1373L
sV644.00
p40
L6895L
sV692.79
p41
L2435L
sV036.9
p42
L5548L
sV312.23
p43
L7368L
sV366.11
p44
L2603L
sV155.0
p45
L1012L
sVE926.2
p46
L5322L
sV947.9
p47
L2301L
sV230.8
p48
L7309L
sV737.0
p49
L6332L
sV718.43
p50
L4355L
sV286.5
p51
L2591L
sV736.72
p52
L4039L
sV680.9
p53
L3704L
sV427.42
p54
L3318L
sV535.61
p55
L3391L
sV754.51
p56
L5129L
sV728.89
p57
L1954L
sV571.8
p58
L445L
sVV10.11
p59
L821L
sV750.26
p60
L6109L
sVE901.0
p61
L7786L
sV379.01
p62
L5750L
sV718.86
p63
L9L
sVV71.01
p64
L3974L
sV997.71
p65
L6831L
sVV62.89
p66
L2111L
sV715.26
p67
L2793L
sV522.7
p68
L3877L
sV173.51
p69
L3085L
sV311.0
p70
L5901L
sV355.8
p71
L1243L
sV140.19
p72
L7743L
sV389.11
p73
L927L
sV719.97
p74
L2627L
sV369.04
p75
L5860L
sV564.02
p76
L5087L
sV374.01
p77
L4016L
sV224.6
p78
L1515L
sVV58.44
p79
L2332L
sV824.1
p80
L6321L
sVV40.39
p81
L3665L
sV780.57
p82
L303L
sV519.4
p83
L3153L
sV365.01
p84
L475L
sV054.40
p85
L5582L
sV618.03
p86
L7781L
sV330.9
p87
L7350L
sV784.40
p88
L4054L
sV569.85
p89
L4408L
sV496
p90
L102L
sV846.9
p91
L2244L
sV910.8
p92
L5222L
sV228.03
p93
L5524L
sV335.9
p94
L6999L
sV719.48
p95
L1006L
sV362.50
p96
L2056L
sV173.40
p97
L5908L
sV360.11
p98
L7659L
sV996.6
p99
L7789L
sVV54.21
p100
L5903L
sV266.2
p101
L564L
sV816.12
p102
L1660L
sV298.9
p103
L608L
sV756.11
p104
L3997L
sV194.4
p105
L6719L
sV789.62
p106
L6147L
sV293.0
p107
L1142L
sV780.56
p108
L1746L
sV295.02
p109
L3617L
sV733.14
p110
L383L
sV754.70
p111
L5651L
sV714.1
p112
L5989L
sV245.0
p113
L6764L
sV953.2
p114
L4030L
sV379.43
p115
L1855L
sV348.1
p116
L2678L
sVV12.59
p117
L229L
sV816.11
p118
L7536L
sVV66.9
p119
L3112L
sV366.46
p120
L6481L
sV324.0
p121
L6454L
sV379.22
p122
L1664L
sV356.0
p123
L1481L
sVV88.01
p124
L739L
sV236.0
p125
L2379L
sV785.0
p126
L278L
sV402.91
p127
L3009L
sVV15.07
p128
L3015L
sVV58.2
p129
L5374L
sV283.10
p130
L7779L
sV574.81
p131
L4834L
sV945.36
p132
L7712L
sV707.00
p133
L292L
sV770.81
p134
L5698L
sV873.30
p135
L6531L
sV536.40
p136
L1848L
sV312.01
p137
L5708L
sV372.01
p138
L4328L
sV786.07
p139
L589L
sV719.44
p140
L274L
sVV65.42
p141
L1760L
sV091.3
p142
L6813L
sV562.10
p143
L199L
sV588.81
p144
L587L
sV174.4
p145
L2129L
sV847.1
p146
L1691L
sV579.1
p147
L6297L
sV522.1
p148
L4203L
sV788.30
p149
L202L
sV530.4
p150
L4114L
sV622.10
p151
L2338L
sV568.81
p152
L2087L
sV370.33
p153
L2201L
sV788.35
p154
L5861L
sV722.72
p155
L2595L
sV189.3
p156
L6841L
sV715.94
p157
L145L
sV789.39
p158
L1259L
sV289.0
p159
L617L
sV372.03
p160
L3956L
sV054.3
p161
L5947L
sV941.05
p162
L7762L
sV364.71
p163
L5573L
sV724.03
p164
L985L
sVV12.61
p165
L437L
sV824.5
p166
L6694L
sV933.1
p167
L1624L
sVE878.0
p168
L3433L
sVV65.8
p169
L3423L
sV396.0
p170
L2298L
sV374.14
p171
L6683L
sV366.8
p172
L894L
sV607.83
p173
L2355L
sV719.88
p174
L2137L
sV765.05
p175
L3518L
sV7999
p176
L3625L
sV733.29
p177
L3121L
sV569.0
p178
L1333L
sV304.60
p179
L4568L
sVV42.3
p180
L3950L
sV909.5
p181
L6287L
sV099.8
p182
L5780L
sV829.1
p183
L5171L
sV995.54
p184
L6957L
sV938
p185
L4524L
sV435.8
p186
L2691L
sV225.0
p187
L2397L
sV716.80
p188
L6074L
sV296.90
p189
L133L
sV627.4
p190
L3300L
sVV42.2
p191
L1743L
sVV49.81
p192
L1390L
sV971.1
p193
L4749L
sV735.2
p194
L3050L
sV923.01
p195
L3581L
sVE921.1
p196
L7763L
sV706.0
p197
L6642L
sV821.39
p198
L7580L
sV783.22
p199
L2096L
sV717.42
p200
L1274L
sV719.18
p201
L7663L
sV523.21
p202
L5085L
sV357.9
p203
L3124L
sV781.3
p204
L26L
sV997.00
p205
L4396L
sV313.0
p206
L5640L
sV789.64
p207
L1811L
sV429.5
p208
L6528L
sV775.4
p209
L5549L
sV379.93
p210
L1386L
sV301.11
p211
L7432L
sV721.2
p212
L1566L
sV719.36
p213
L6467L
sV627.0
p214
L3378L
sV249.9
p215
L5697L
sV999.9
p216
L3073L
sV995.81
p217
L2248L
sV200.77
p218
L5050L
sV339.89
p219
L2571L
sV066.40
p220
L7750L
sVE029.9
p221
L4453L
sV435.1
p222
L3776L
sV233.31
p223
L2339L
sV461.0
p224
L1748L
sV536.49
p225
L1041L
sV491.0
p226
L704L
sV879.4
p227
L4533L
sV443.29
p228
L6029L
sV845.00
p229
L829L
sV747.64
p230
L6860L
sV730.2
p231
L3712L
sV730.86
p232
L7785L
sVV76.19
p233
L3079L
sVV14.3
p234
L1692L
sV550.90
p235
L1617L
sV200.88
p236
L3447L
sV813.40
p237
L5646L
sV787.7
p238
L3066L
sV907.4
p239
L4913L
sV218.0
p240
L2486L
sV369.11
p241
L5970L
sV615.1
p242
L7026L
sV840.3
p243
L5968L
sV787.0
p244
L4632L
sV593.70
p245
L5812L
sV930.9
p246
L5581L
sVV71.9
p247
L3320L
sV209.34
p248
L5072L
sV198.2
p249
L2206L
sV381.50
p250
L6955L
sV721.91
p251
L5285L
sV739.0
p252
L4235L
sV995.1
p253
L1058L
sV877.0
p254
L1798L
sV209.41
p255
L7704L
sV493.82
p256
L3826L
sV897.0
p257
L1899L
sVE878.8
p258
L402L
sVV88.12
p259
L6447L
sVV77.99
p260
L1501L
sV370.01
p261
L4426L
sV252.01
p262
L1349L
sVV69.1
p263
L3734L
sV315.5
p264
L1057L
sVV58.71
p265
L5724L
sV579.4
p266
L5834L
sV562.02
p267
L5095L
sV805.6
p268
L1214L
sV191.9
p269
L2390L
sV173.71
p270
L6550L
sV788.7
p271
L6798L
sV290.0
p272
L83L
sV994.9
p273
L6238L
sV173.3
p274
L7060L
sV885.0
p275
L4505L
sVV53.2
p276
L1281L
sV256.8
p277
L1415L
sV446.0
p278
L5563L
sV403.01
p279
L2953L
sV583.81
p280
L1027L
sV727.05
p281
L3081L
sV366.53
p282
L603L
sV536.9
p283
L1439L
sVV13.21
p284
L5207L
sV623.7
p285
L7680L
sV372.10
p286
L4084L
sV789.49
p287
L5090L
sVE884.6
p288
L4427L
sVV54.24
p289
L5777L
sVV71.89
p290
L141L
sV707.25
p291
L1061L
sVV54.11
p292
L2756L
sV455.2
p293
L2797L
sV397.9
p294
L6331L
sV250.51
p295
L2642L
sV285.9
p296
L151L
sV831.14
p297
L7191L
sV976.0
p298
L4268L
sV374.05
p299
L1159L
sV478.8
p300
L7428L
sV521.01
p301
L6978L
sV373.32
p302
L4222L
sV377.39
p303
L4010L
sV010.90
p304
L7394L
sV337.29
p305
L5964L
sV680.1
p306
L2409L
sV008.69
p307
L5416L
sV766.2
p308
L6559L
sVV44.50
p309
L5921L
sV963.5
p310
L3955L
sV686.8
p311
L413L
sV050.0
p312
L4522L
sV453.75
p313
L5974L
sV842.02
p314
L5758L
sV173.99
p315
L6440L
sV295.35
p316
L7481L
sV251.0
p317
L3461L
sV737.12
p318
L3758L
sV649.33
p319
L4857L
sV333.6
p320
L6816L
sV975.3
p321
L4147L
sVE884.3
p322
L1926L
sV745.5
p323
L2960L
sV694.8
p324
L5264L
sV794.14
p325
L7594L
sV364.04
p326
L7254L
sV681.01
p327
L4099L
sV991.8
p328
L4530L
sV719.56
p329
L1272L
sVV82.2
p330
L5681L
sV365.41
p331
L7112L
sV478.11
p332
L1238L
sV733.0
p333
L6903L
sV916.9
p334
L7723L
sV526.81
p335
L4342L
sV712.36
p336
L2660L
sV793.91
p337
L720L
sV362.34
p338
L253L
sV302.70
p339
L4001L
sV007.1
p340
L6910L
sV276.69
p341
L1863L
sV008.43
p342
L4787L
sV736.74
p343
L7545L
sV530.87
p344
L6863L
sV369.16
p345
L6714L
sVV85.39
p346
L2066L
sV754.89
p347
L5629L
sVV90.10
p348
L6054L
sV998.83
p349
L1096L
sV717.40
p350
L5109L
sV955.1
p351
L2809L
sV380.31
p352
L7510L
sV425.1
p353
L3535L
sV622.4
p354
L1785L
sV736.39
p355
L2199L
sV173.69
p356
L2754L
sV622.12
p357
L6751L
sV296.41
p358
L2938L
sV369.02
p359
L7707L
sV610.1
p360
L676L
sV371.56
p361
L817L
sV634.91
p362
L2553L
sV848.3
p363
L3380L
sV865.04
p364
L6985L
sV278.1
p365
L4221L
sV301.6
p366
L3967L
sV428.9
p367
L903L
sV944.21
p368
L7181L
sV723.8
p369
L3080L
sV318.20
p370
L6689L
sV577.0
p371
L483L
sV863.49
p372
L5324L
sV444.9
p373
L873L
sV170.9
p374
L4980L
sV911.6
p375
L1961L
sV784.59
p376
L789L
sV527.9
p377
L5253L
sV727.1
p378
L643L
sV368.16
p379
L2148L
sV008.04
p380
L6780L
sV385.21
p381
L3297L
sV922.4
p382
L1347L
sV603.1
p383
L6004L
sV473.9
p384
L717L
sV295.50
p385
L3875L
sV309.21
p386
L5677L
sV730.95
p387
L5175L
sV718.98
p388
L4330L
sV733.49
p389
L3925L
sVV10.3
p390
L192L
sV460
p391
L1925L
sVV65.45
p392
L5001L
sV136.1
p393
L3135L
sV443.9
p394
L152L
sV742.8
p395
L6286L
sVV84.01
p396
L6761L
sV786.05
p397
L297L
sV823.30
p398
L4778L
sV375.22
p399
L5687L
sV511.81
p400
L3209L
sV631
p401
L7559L
sV732.4
p402
L6656L
sV807.2
p403
L3368L
sV266.1
p404
L3219L
sV913.5
p405
L4037L
sV813.00
p406
L6695L
sV734
p407
L2116L
sV715.17
p408
L909L
sV373.2
p409
L2135L
sV814.07
p410
L2586L
sV380.53
p411
L7676L
sV200.43
p412
L5595L
sV661.11
p413
L2494L
sV379.51
p414
L4672L
sV200.70
p415
L1853L
sV331.5
p416
L3787L
sVE912
p417
L5383L
sV161.0
p418
L4127L
sV438.21
p419
L1304L
sV718.15
p420
L7441L
sV523.20
p421
L5152L
sV733.40
p422
L4012L
sV404.1
p423
L2429L
sV374.55
p424
L6497L
sV642.03
p425
L2747L
sVV58.66
p426
L939L
sV209.71
p427
L2845L
sV814.10
p428
L4425L
sV229.8
p429
L6380L
sV648.22
p430
L6523L
sV965.61
p431
L2272L
sV455.5
p432
L3204L
sV793.81
p433
L3042L
sV294.10
p434
L888L
sV349.2
p435
L6315L
sV765.0
p436
L6830L
sV274.01
p437
L1615L
sVE953.8
p438
L5386L
sV790.9
p439
L7546L
sV521.24
p440
L4937L
sV560.9
p441
L362L
sV532.70
p442
L5274L
sV378.51
p443
L3195L
sV615.0
p444
L5473L
sV253.2
p445
L2521L
sVE906.0
p446
L4302L
sV371.41
p447
L1237L
sV719.27
p448
L1976L
sVV81.2
p449
L1712L
sV530.5
p450
L2077L
sV396.8
p451
L859L
sV415.13
p452
L5995L
sV808.44
p453
L2376L
sV220
p454
L4439L
sV295.84
p455
L3676L
sV728.6
p456
L1825L
sV117.8
p457
L6902L
sV274.00
p458
L1072L
sV059.19
p459
L4094L
sVV52.3
p460
L5509L
sV298.0
p461
L4102L
sV820.03
p462
L3909L
sVE853.2
p463
L2513L
sVV44.8
p464
L4771L
sV309.4
p465
L3587L
sV296.54
p466
L2117L
sV202.88
p467
L1837L
sVV48.5
p468
L5192L
sV776.6
p469
L2040L
sV371.42
p470
L4237L
sV316
p471
L4633L
sV788.43
p472
L1893L
sVV72.19
p473
L2266L
sV617.3
p474
L7040L
sV726.33
p475
L586L
sV338.28
p476
L1480L
sV698.0
p477
L3295L
sV846.0
p478
L1498L
sV543.0
p479
L7393L
sV348.31
p480
L1882L
sV580.89
p481
L4368L
sVV45.76
p482
L820L
sV345.90
p483
L15L
sV363.56
p484
L7093L
sV719.16
p485
L5410L
sV296.62
p486
L2240L
sVV65.44
p487
L4721L
sV758.9
p488
L3099L
sV250.32
p489
L4501L
sV711.08
p490
L4028L
sV730.79
p491
L7725L
sVV53.7
p492
L4952L
sVE885.9
p493
L131L
sV038.11
p494
L2211L
sV388.01
p495
L2174L
sV250.70
p496
L1077L
sV532.10
p497
L6098L
sV686.00
p498
L5702L
sV794.6
p499
L1577L
sVE858.9
p500
L4670L
sV564.1
p501
L510L
sV284.11
p502
L3650L
sVV54.82
p503
L1115L
sV800.01
p504
L5802L
sV366.14
p505
L302L
sV524.82
p506
L4516L
sV444.1
p507
L7512L
sV739.4
p508
L666L
sVE922.0
p509
L7266L
sV339.83
p510
L5191L
sV751.2
p511
L5399L
sV813.91
p512
L7543L
sV789.69
p513
L3113L
sV905.3
p514
L1292L
sV482.31
p515
L3603L
sV337.21
p516
L5063L
sV305.81
p517
L6466L
sV702.11
p518
L1168L
sV731.8
p519
L1130L
sV977.1
p520
L6412L
sV008.5
p521
L2330L
sV242.91
p522
L5120L
sV923.02
p523
L6763L
sV367.9
p524
L979L
sV379.56
p525
L7196L
sVV10.41
p526
L1709L
sV915.4
p527
L6931L
sV913.8
p528
L4761L
sVV56.2
p529
L5671L
sV331.9
p530
L18L
sVE007.0
p531
L6018L
sVV45.85
p532
L1767L
sV438.9
p533
L952L
sV288.3
p534
L2917L
sV885.1
p535
L7775L
sV752.31
p536
L6600L
sVV09.81
p537
L4061L
sV214.8
p538
L914L
sV743.33
p539
L5856L
sV443.81
p540
L1383L
sV474.8
p541
L7291L
sV786.6
p542
L1008L
sV246.9
p543
L1261L
sV301.10
p544
L4996L
sVV63.9
p545
L2033L
sV770.89
p546
L6632L
sV250.83
p547
L1903L
sV996.67
p548
L1105L
sV273.8
p549
L449L
sV365.02
p550
L1744L
sV429.71
p551
L7179L
sV524.51
p552
L3759L
sV410.32
p553
L6846L
sV456.8
p554
L3284L
sVV57.9
p555
L4502L
sVV71.1
p556
L452L
sVN82
p557
L6156L
sVV12.52
p558
L2242L
sV304.03
p559
L1460L
sV727.81
p560
L3521L
sV385.03
p561
L6199L
sVV73.88
p562
L4885L
sV388.45
p563
L5057L
sV715.35
p564
L640L
sVV62.3
p565
L3482L
sV614.2
p566
L5513L
sV789.36
p567
L4673L
sV280.0
p568
L1210L
sV200.46
p569
L5596L
sV361.31
p570
L7L
sV381.7
p571
L7706L
sV743.8
p572
L7446L
sV754.40
p573
L7238L
sV250.01
p574
L471L
sV303.93
p575
L988L
sV675.11
p576
L5471L
sV873.0
p577
L242L
sVV17.41
p578
L7353L
sV789.60
p579
L2762L
sVE006.4
p580
L6020L
sV432.1
p581
L41L
sV221.2
p582
L4136L
sV493.2
p583
L2510L
sVV54.12
p584
L2353L
sV255.41
p585
L565L
sVV15.29
p586
L827L
sV567.89
p587
L4829L
sV905.5
p588
L2524L
sV903.9
p589
L5635L
sV942.21
p590
L7477L
sV041.2
p591
L1153L
sV381.19
p592
L6832L
sV041.7
p593
L2045L
sV327.51
p594
L1540L
sV312.4
p595
L7294L
sV079.2
p596
L6406L
sVV45.12
p597
L2957L
sV465.0
p598
L2664L
sV733.98
p599
L4134L
sV327.24
p600
L1656L
sV285.1
p601
L155L
sV410.50
p602
L6954L
sV553.20
p603
L1231L
sV756.6
p604
L5913L
sV428.33
p605
L1249L
sV366.17
p606
L2683L
sV523.10
p607
L2071L
sV079.99
p608
L710L
sV944.41
p609
L6803L
sV362.57
p610
L1839L
sV996.89
p611
L2205L
sV079.53
p612
L5291L
sVV85.43
p613
L2635L
sV933.0
p614
L6214L
sV079.89
p615
L4562L
sV576.4
p616
L6887L
sV569.89
p617
L1155L
sV295.64
p618
L3673L
sV780.9
p619
L628L
sVV13.22
p620
L5060L
sV276.50
p621
L478L
sV795.81
p622
L818L
sV820.01
p623
L5442L
sV799.53
p624
L7567L
sV716.16
p625
L2369L
sV788.64
p626
L3346L
sV719.66
p627
L3325L
sV746.6
p628
L1724L
sV845.03
p629
L3871L
sV646.61
p630
L6103L
sV427.31
p631
L78L
sV715.16
p632
L687L
sV115.09
p633
L6648L
sVV15.08
p634
L2384L
sV788.20
p635
L1148L
sV648.90
p636
L4855L
sV825.22
p637
L5053L
sV345.70
p638
L6120L
sVV40.9
p639
L1366L
sV873.21
p640
L6505L
sV996.40
p641
L1335L
sV844.8
p642
L520L
sV643.93
p643
L4852L
sV296.42
p644
L2143L
sV362.77
p645
L5453L
sVV05.4
p646
L3420L
sV157.0
p647
L5224L
sV280.9
p648
L169L
sV372.31
p649
L6258L
sV951.4
p650
L4805L
sV624.09
p651
L4086L
sVV90.33
p652
L6325L
sV789.35
p653
L4226L
sV249.71
p654
L6859L
sV718.84
p655
L6134L
sV410.81
p656
L3310L
sV491.2
p657
L4500L
sV769
p658
L3941L
sV322.1
p659
L5881L
sV366.03
p660
L3147L
sV560.0
p661
L5749L
sV646.33
p662
L6704L
sV236.2
p663
L3880L
sV424.99
p664
L1790L
sV278.03
p665
L732L
sV673.20
p666
L6754L
sVV53.8
p667
L3462L
sVE849.7
p668
L1757L
sV815.11
p669
L7586L
sV518.81
p670
L557L
sV362.89
p671
L3607L
sV945.02
p672
L455L
sVE813.1
p673
L2190L
sV785.52
p674
L439L
sV733.10
p675
L5350L
sV787.63
p676
L7108L
sV719.96
p677
L3313L
sV368.13
p678
L2467L
sV630
p679
L7355L
sV724.4
p680
L135L
sV733.82
p681
L662L
sV375.20
p682
L1070L
sV969.02
p683
L6413L
sV942.04
p684
L7793L
sVV70.4
p685
L766L
sV941.06
p686
L6650L
sVV10.53
p687
L5340L
sV747.32
p688
L6580L
sV380.21
p689
L3158L
sV041.12
p690
L992L
sV735.4
p691
L173L
sV923.20
p692
L1342L
sV879.0
p693
L6145L
sV845.13
p694
L3804L
sVV76.52
p695
L4940L
sV581.89
p696
L4164L
sV459.33
p697
L5281L
sV634.92
p698
L4895L
sVV03.2
p699
L5157L
sVE849.0
p700
L225L
sVV26.0
p701
L4379L
sV635.92
p702
L2594L
sV873.69
p703
L3302L
sV440.32
p704
L7290L
sV378.85
p705
L6492L
sV523.9
p706
L1456L
sV760.75
p707
L7190L
sV389.03
p708
L4943L
sV718.36
p709
L7247L
sV518.3
p710
L728L
sV299.01
p711
L4781L
sV556.5
p712
L6164L
sV864.05
p713
L7376L
sV188.7
p714
L6657L
sV614.8
p715
L336L
sV788.39
p716
L2176L
sVV14.0
p717
L738L
sV305.91
p718
L2752L
sVE819.1
p719
L5476L
sV736.79
p720
L911L
sV940.0
p721
L7319L
sV865.09
p722
L4259L
sV308.4
p723
L5040L
sV388.69
p724
L3591L
sV348.4
p725
L5721L
sVV20.2
p726
L1050L
sV307.80
p727
L3882L
sV813.23
p728
L3374L
sV291.1
p729
L1672L
sV198.3
p730
L2395L
sV581.2
p731
L6415L
sV880.09
p732
L6870L
sV654.93
p733
L3250L
sV300.20
p734
L1376L
sVV64.3
p735
L1165L
sV580.4
p736
L4397L
sV305.62
p737
L2465L
sV208.00
p738
L4934L
sV309.3
p739
L5092L
sV777.50
p740
L3709L
sVE950.2
p741
L5354L
sV569.49
p742
L1232L
sV998.11
p743
L403L
sV272.7
p744
L4315L
sV078.89
p745
L2916L
sV214
p746
L7541L
sV388.00
p747
L4884L
sV099.40
p748
L5373L
sV743.63
p749
L6241L
sVV58.67
p750
L79L
sV733.15
p751
L5805L
sV217
p752
L4334L
sV742.59
p753
L2221L
sV478.5
p754
L1963L
sV594.1
p755
L3858L
sV634.40
p756
L5067L
sV250.10
p757
L3426L
sV726.8
p758
L4275L
sV595.0
p759
L280L
sV296.66
p760
L213L
sVV11.0
p761
L1339L
sV789.37
p762
L2942L
sV712.93
p763
L5210L
sVE019.9
p764
L6067L
sV848.40
p765
L4696L
sV136.9
p766
L1102L
sV295.70
p767
L509L
sV726.13
p768
L1197L
sV009.2
p769
L2834L
sV449
p770
L3434L
sV714.9
p771
L1360L
sV626.4
p772
L2372L
sV661.93
p773
L4862L
sV813.33
p774
L7662L
sVV45.82
p775
L551L
sV823.9
p776
L5428L
sV998.82
p777
L3891L
sVE812.7
p778
L6743L
sV521.07
p779
L7491L
sV977.9
p780
L784L
sVV66.7
p781
L3169L
sVV10.51
p782
L3612L
sVV10.52
p783
L719L
sV865.12
p784
L7216L
sV110.1
p785
L172L
sV472.2
p786
L6356L
sV312.32
p787
L6039L
sV621.32
p788
L5936L
sV661.31
p789
L4927L
sV365.04
p790
L2195L
sV440.0
p791
L234L
sV786.03
p792
L759L
sV569.69
p793
L3166L
sV154.0
p794
L355L
sV374.12
p795
L7600L
sV402.90
p796
L1931L
sV716.81
p797
L7341L
sV719.08
p798
L2876L
sV202.10
p799
L6264L
sV208.10
p800
L2894L
sV079.6
p801
L3141L
sV814.00
p802
L1322L
sV757.9
p803
L2653L
sV174.2
p804
L2024L
sV455.3
p805
L860L
sV424.3
p806
L862L
sV575.8
p807
L2184L
sV737.42
p808
L7748L
sV757.4
p809
L6575L
sVE944.4
p810
L1472L
sV996.84
p811
L5683L
sVV67.01
p812
L1890L
sV303.03
p813
L5753L
sV726.60
p814
L1902L
sVV26.49
p815
L6949L
sV716.22
p816
L4731L
sV730.39
p817
L6293L
sV904.8
p818
L472L
sV535.50
p819
L636L
sV649.01
p820
L6520L
sV781.7
p821
L3097L
sV576.8
p822
L656L
sV878.6
p823
L5437L
sV428.32
p824
L902L
sV756.73
p825
L3720L
sV730.04
p826
L5599L
sV237.73
p827
L7696L
sV726.0
p828
L2758L
sV723.1
p829
L255L
sV707.20
p830
L1864L
sV736.31
p831
L5139L
sV425.11
p832
L3536L
sV389.18
p833
L639L
sV890.1
p834
L408L
sV789.05
p835
L200L
sV345.60
p836
L1043L
sV839.06
p837
L6696L
sV047.8
p838
L6473L
sV428.3
p839
L4156L
sV369.62
p840
L5675L
sV078.2
p841
L6001L
sV736.71
p842
L5244L
sV478.4
p843
L1964L
sV094.89
p844
L7640L
sV608.89
p845
L2926L
sV603.9
p846
L2714L
sV623.0
p847
L2344L
sV792.0
p848
L5009L
sVV01.1
p849
L1686L
sV643.23
p850
L4856L
sV070.30
p851
L2670L
sV649.11
p852
L1278L
sV942.23
p853
L3031L
sV277.6
p854
L5496L
sV719.00
p855
L1295L
sV528.09
p856
L5142L
sV305.51
p857
L2437L
sV743.61
p858
L2669L
sV334.2
p859
L6369L
sV415.19
p860
L348L
sV478.19
p861
L529L
sV663.83
p862
L4537L
sV342.92
p863
L2936L
sV307.45
p864
L7720L
sVV15.81
p865
L816L
sV836.50
p866
L3917L
sV863.30
p867
L4767L
sV944.22
p868
L6928L
sV341.0
p869
L5364L
sV868.04
p870
L5748L
sV375.15
p871
L884L
sV915.6
p872
L5078L
sV008.3
p873
L6591L
sV313.81
p874
L3509L
sV626.8
p875
L2234L
sV031.9
p876
L5920L
sV838.03
p877
L6235L
sV355.0
p878
L665L
sV375.52
p879
L3242L
sV301.83
p880
L1447L
sV997.2
p881
L2125L
sVV02.51
p882
L4544L
sV507.8
p883
L5798L
sV825.21
p884
L6009L
sVV24.2
p885
L3266L
sV305.40
p886
L786L
sVV05.3
p887
L1801L
sVE886.9
p888
L3439L
sV361.07
p889
L4666L
sV365.71
p890
L2220L
sV611.0
p891
L677L
sV363.13
p892
L7603L
sV295.83
p893
L3675L
sV718.50
p894
L3918L
sV174.0
p895
L4555L
sV729.39
p896
L5480L
sV817.1
p897
L7791L
sV730.96
p898
L1114L
sV241.9
p899
L4594L
sV372.41
p900
L1380L
sV780.52
p901
L595L
sV562.12
p902
L3887L
sV250.71
p903
L1641L
sV242.10
p904
L5377L
sV823.32
p905
L4776L
sV780.61
p906
L2923L
sV516.0
p907
L5879L
sV539.89
p908
L5803L
sV706.9
p909
L5497L
sV458.21
p910
L1476L
sV998.59
p911
L405L
sV942.09
p912
L7137L
sV371.00
p913
L604L
sV634.90
p914
L7300L
sV649.41
p915
L6430L
sV362.85
p916
L7285L
sV571.5
p917
L466L
sV173.62
p918
L5263L
sV708.9
p919
L2722L
sV997.4
p920
L4702L
sV890.0
p921
L407L
sVE937.8
p922
L5774L
sV921.2
p923
L2730L
sV366.10
p924
L1021L
sV338.21
p925
L150L
sV031.0
p926
L5654L
sV719.70
p927
L4780L
sV833.09
p928
L4990L
sV456.0
p929
L2565L
sV346.10
p930
L2434L
sVV28.1
p931
L6512L
sVE920.8
p932
L244L
sV235.5
p933
L3774L
sV339.00
p934
L4958L
sV709.1
p935
L6335L
sVV68.89
p936
L1053L
sV718.31
p937
L4837L
sV296.25
p938
L3815L
sV336.2
p939
L6362L
sV842.09
p940
L3979L
sV934.9
p941
L2708L
sV650
p942
L2478L
sV491.8
p943
L1747L
sV912.4
p944
L6354L
sV429.81
p945
L6909L
sVV58.83
p946
L879L
sVE849.4
p947
L5086L
sV881.11
p948
L1907L
sV007.0
p949
L7141L
sVE929.9
p950
L4636L
sVE953.0
p951
L3686L
sV385.33
p952
L5627L
sV806.20
p953
L4360L
sV111.0
p954
L4462L
sVV63.0
p955
L2647L
sVV69.8
p956
L4760L
sV454.2
p957
L2191L
sV839.8
p958
L3627L
sV788.21
p959
L1284L
sV754.59
p960
L6747L
sV245.4
p961
L6627L
sV872.00
p962
L6962L
sV307.50
p963
L3052L
sV718.07
p964
L7237L
sV799.59
p965
L3315L
sV277.1
p966
L1717L
sV411.0
p967
L66L
sV428.22
p968
L1032L
sV806.32
p969
L7736L
sVE955.0
p970
L6066L
sV372.11
p971
L7282L
sV354.0
p972
L1084L
sVV54.89
p973
L1959L
sV194.0
p974
L6561L
sV914.2
p975
L2325L
sV799.22
p976
L4274L
sV658.11
p977
L6434L
sV286.3
p978
L5851L
sVV12.21
p979
L5847L
sV530.10
p980
L723L
sV958.7
p981
L1490L
sV696.8
p982
L2725L
sV649.50
p983
L7693L
sV324.1
p984
L4531L
sV719.80
p985
L654L
sV781.5
p986
L7103L
sV993.2
p987
L4309L
sV906.7
p988
L470L
sV807.04
p989
L2083L
sV724.2
p990
L109L
sV388.71
p991
L1571L
sV347.00
p992
L4180L
sV385.22
p993
L1936L
sV719.05
p994
L387L
sV373.33
p995
L7115L
sVV17.49
p996
L2908L
sV530.82
p997
L3171L
sV917.1
p998
L107L
sVE858.0
p999
L3865L
sV296.44
p1000
L2462L
sV530.8
p1001
L2662L
sV923.10
p1002
L758L
sV917.8
p1003
L1633L
sV747.63
p1004
L6069L
sV785.6
p1005
L331L
sVV52.8
p1006
L4707L
sV201.98
p1007
L5486L
sV782.2
p1008
L1312L
sV829.0
p1009
L3707L
sV476.0
p1010
L2423L
sV372.42
p1011
L3190L
sVV09.90
p1012
L2677L
sVE936.0
p1013
L7023L
sV366.16
p1014
L8L
sV995.3
p1015
L418L
sV754.79
p1016
L5769L
sV205.10
p1017
L4389L
sV302.71
p1018
L6377L
sV209.60
p1019
L3109L
sV442.2
p1020
L1911L
sVL946
p1021
L7005L
sVV01.3
p1022
L7619L
sV504
p1023
L5510L
sV814.01
p1024
L4819L
sVE870.6
p1025
L7530L
sV729.91
p1026
L2719L
sV524.64
p1027
L4709L
sV626.3
p1028
L7367L
sV756.52
p1029
L3234L
sV374.21
p1030
L7055L
sV361.04
p1031
L4891L
sV079.98
p1032
L3065L
sV711.07
p1033
L1904L
sV344.40
p1034
L6349L
sV295.52
p1035
L7702L
sV711.01
p1036
L4892L
sV906.1
p1037
L2991L
sV752.41
p1038
L7085L
sV873.72
p1039
L7399L
sV327.20
p1040
L663L
sV783.2
p1041
L7493L
sV794.2
p1042
L2767L
sV017.96
p1043
L7344L
sV289.52
p1044
L4441L
sV863.0
p1045
L7565L
sV7580
p1046
L6918L
sV599.69
p1047
L3529L
sV670.20
p1048
L6843L
sV821.20
p1049
L1346L
sV756.51
p1050
L4135L
sV770.2
p1051
L3181L
sV969.09
p1052
L782L
sV330.3
p1053
L1726L
sV767.0
p1054
L6106L
sV371.20
p1055
L2682L
sV517.8
p1056
L6002L
sVV44.1
p1057
L1045L
sV893.1
p1058
L1075L
sV784.7
p1059
L60L
sV944.20
p1060
L6510L
sV428.1
p1061
L1253L
sV595.89
p1062
L4321L
sV314.0
p1063
L5146L
sV959.4
p1064
L1343L
sV718.11
p1065
L3292L
sV669.71
p1066
L3265L
sV965.01
p1067
L2282L
sVV49.2
p1068
L7456L
sV307.22
p1069
L6762L
sV440.24
p1070
L875L
sV377.34
p1071
L5195L
sVV12.60
p1072
L3746L
sV209.63
p1073
L6249L
sVV49.1
p1074
L5396L
sV923.8
p1075
L3731L
sV287.8
p1076
L5664L
sV294.0
p1077
L4939L
sV348.3
p1078
L7389L
sV008.8
p1079
L953L
sV719.90
p1080
L2625L
sV718.08
p1081
L3152L
sV715.24
p1082
L6980L
sVV15.89
p1083
L787L
sV873.1
p1084
L5732L
sV070.0
p1085
L6891L
sVE878.6
p1086
L5650L
sV937
p1087
L3685L
sV209.17
p1088
L5778L
sVV12.04
p1089
L110L
sVE870.0
p1090
L6336L
sVE942.9
p1091
L3278L
sV626.2
p1092
L2276L
sV999.33
p1093
L4613L
sVE849.9
p1094
L1097L
sVE932.0
p1095
L3567L
sV621.30
p1096
L3027L
sV719.26
p1097
L5639L
sV711.99
p1098
L6395L
sV355.79
p1099
L3834L
sV732.9
p1100
L6437L
sV379.27
p1101
L4358L
sV801.09
p1102
L7658L
sV882.2
p1103
L2813L
sV342.10
p1104
L3778L
sV784.49
p1105
L1916L
sV820.12
p1106
L7670L
sV550.02
p1107
L7753L
sV799.3
p1108
L81L
sV726.71
p1109
L2196L
sV839.21
p1110
L6729L
sV451.89
p1111
L3091L
sV360.60
p1112
L4241L
sV213.7
p1113
L6094L
sV338.3
p1114
L3431L
sV969.70
p1115
L6557L
sVV16.3
p1116
L1388L
sV602.0
p1117
L7556L
sV173.29
p1118
L4252L
sVV45.2
p1119
L1044L
sV832.00
p1120
L5799L
sV626.0
p1121
L1764L
sV008.49
p1122
L6750L
sV718.48
p1123
L4881L
sV995.7
p1124
L5559L
sV880.00
p1125
L4765L
sV733.96
p1126
L6329L
sV296.45
p1127
L2939L
sV270.6
p1128
L813L
sVV78.9
p1129
L7465L
sV433.31
p1130
L3777L
sV288.62
p1131
L4807L
sV269.8
p1132
L3799L
sV482.41
p1133
L4523L
sV599.70
p1134
L328L
sV459.39
p1135
L7359L
sV721.8
p1136
L1889L
sV054.6
p1137
L7489L
sV695.2
p1138
L3088L
sV045.91
p1139
L3146L
sV604.90
p1140
L1555L
sV414.4
p1141
L3437L
sV530.0
p1142
L1990L
sV444.81
p1143
L1398L
sVV49.72
p1144
L1897L
sV928.00
p1145
L3828L
sV715.38
p1146
L2540L
sV411.81
p1147
L3531L
sV380.81
p1148
L7139L
sV803.00
p1149
L4007L
sVE920.3
p1150
L1319L
sV787.03
p1151
L279L
sV327.22
p1152
L5632L
sV372.54
p1153
L6360L
sV203.00
p1154
L115L
sV969.3
p1155
L4267L
sV758.7
p1156
L7202L
sV290.43
p1157
L5254L
sV802.7
p1158
L6007L
sV348.89
p1159
L35L
sV995.89
p1160
L5927L
sV719.61
p1161
L2367L
sV821.22
p1162
L6666L
sV377.41
p1163
L1547L
sV195.1
p1164
L4584L
sV560.81
p1165
L363L
sV414.8
p1166
L1328L
sV355.9
p1167
L474L
sV363.52
p1168
L1602L
sV338.11
p1169
L273L
sVV85.54
p1170
L4172L
sV719.94
p1171
L4366L
sVE917.9
p1172
L987L
sVV70.9
p1173
L1673L
sV732.7
p1174
L6585L
sV296.10
p1175
L4126L
sV909.3
p1176
L5419L
sV785.2
p1177
L506L
sV056.71
p1178
L4323L
sVE932.3
p1179
L3641L
sV569.83
p1180
L2782L
sV982.8
p1181
L6043L
sV746.9
p1182
L2933L
sV871.3
p1183
L4244L
sVE858.1
p1184
L6684L
sV305.72
p1185
L6916L
sV364.9
p1186
L4250L
sV362.82
p1187
L6529L
sV878.4
p1188
L7695L
sV895.0
p1189
L2331L
sVV62.5
p1190
L3674L
sV154.1
p1191
L334L
sV516.30
p1192
L3994L
sV552.1
p1193
L1606L
sVE942.6
p1194
L2608L
sV354.1
p1195
L246L
sV427.0
p1196
L1463L
sV173.70
p1197
L6551L
sV512.81
p1198
L4140L
sV823.92
p1199
L5823L
sV254.0
p1200
L6819L
sV294.1
p1201
L7425L
sV663.93
p1202
L4543L
sV531.40
p1203
L2041L
sVE989
p1204
L38L
sV730.08
p1205
L3857L
sVE812.9
p1206
L3002L
sV287.1
p1207
L2656L
sV357.2
p1208
L294L
sV707.05
p1209
L931L
sV300.23
p1210
L2121L
sV115.12
p1211
L6856L
sV747.61
p1212
L5540L
sV441.9
p1213
L1355L
sV607.1
p1214
L3783L
sV513.0
p1215
L4064L
sV414.10
p1216
L4123L
sV736.9
p1217
L5738L
sV535.01
p1218
L2453L
sV451.11
p1219
L1078L
sV616.4
p1220
L5065L
sV388.42
p1221
L4999L
sV807.03
p1222
L54L
sV655.23
p1223
L6429L
sVV15.42
p1224
L5858L
sV619.9
p1225
L6746L
sV428.23
p1226
L1030L
sV793.11
p1227
L750L
sV894.1
p1228
L2514L
sV333.90
p1229
L2436L
sV787.2
p1230
L7641L
sVV67.09
p1231
L401L
sV251.9
p1232
L6715L
sV518.1
p1233
L3134L
sV289.6
p1234
L2791L
sVV52.2
p1235
L3988L
sV438.19
p1236
L1036L
sV962.6
p1237
L5143L
sV482.42
p1238
L3554L
sV658.01
p1239
L3262L
sV053.0
p1240
L3768L
sV255.3
p1241
L2930L
sV233.3
p1242
L7694L
sV333.4
p1243
L575L
sV755.21
p1244
L7183L
sVV61.07
p1245
L4710L
sVV54.81
p1246
L396L
sV600.90
p1247
L552L
sV658.13
p1248
L3629L
sV991.1
p1249
L7684L
sV333.83
p1250
L3493L
sV599.7
p1251
L5622L
sV295.93
p1252
L5755L
sV852.25
p1253
L7542L
sV581.0
p1254
L6208L
sV160.9
p1255
L7448L
sV441.03
p1256
L5619L
sV360.12
p1257
L2492L
sV456.20
p1258
L504L
sV848.8
p1259
L1283L
sV532.30
p1260
L7414L
sV530.9
p1261
L1020L
sV344.09
p1262
L1143L
sV348.5
p1263
L3125L
sV163.9
p1264
L6934L
sVE906.8
p1265
L5259L
sV440.4
p1266
L1397L
sV721.42
p1267
L1705L
sV386.50
p1268
L5351L
sV786.2
p1269
L55L
sV675.10
p1270
L7001L
sV761.2
p1271
L7806L
sV184.9
p1272
L4482L
sV039.8
p1273
L6788L
sV569.61
p1274
L7201L
sV868.03
p1275
L4004L
sVE853.0
p1276
L7035L
sV722.0
p1277
L324L
sV727.49
p1278
L6969L
sV575.6
p1279
L1933L
sV799.02
p1280
L349L
sV583.7
p1281
L7444L
sV685.0
p1282
L7091L
sVV88.22
p1283
L6341L
sV438.11
p1284
L2655L
sVE030
p1285
L5014L
sV698.1
p1286
L2219L
sV897.4
p1287
L5020L
sV715.97
p1288
L315L
sVV53.50
p1289
L6439L
sVV16.49
p1290
L4774L
sV300.6
p1291
L6775L
sV945.21
p1292
L6116L
sV607.84
p1293
L990L
sV882.1
p1294
L2814L
sV534.90
p1295
L5106L
sV944.23
p1296
L5320L
sV331.3
p1297
L1046L
sV780.95
p1298
L5104L
sV362.01
p1299
L167L
sV382.9
p1300
L675L
sV621.1
p1301
L5525L
sVV12.00
p1302
L5162L
sV571.49
p1303
L1018L
sV359.3
p1304
L6340L
sVV27.1
p1305
L7382L
sV201.01
p1306
L7050L
sV410.12
p1307
L6758L
sV641.21
p1308
L5949L
sV459.0
p1309
L1413L
sV972.1
p1310
L2247L
sVV15.41
p1311
L3012L
sV296.31
p1312
L1063L
sVV56.8
p1313
L3503L
sVE930.9
p1314
L3452L
sV780.94
p1315
L1430L
sVV61.7
p1316
L6384L
sV996.45
p1317
L2760L
sV189.0
p1318
L3444L
sV366.09
p1319
L6216L
sVV54.29
p1320
L5183L
sV840.9
p1321
L1202L
sV488.02
p1322
L3396L
sV517.2
p1323
L5791L
sVV15.9
p1324
L1562L
sV427.32
p1325
L843L
sVV41.1
p1326
L3393L
sV959.19
p1327
L802L
sV694.0
p1328
L6828L
sV111.8
p1329
L4052L
sV599.9
p1330
L2674L
sV275.09
p1331
L3470L
sVV66.2
p1332
L357L
sV816.01
p1333
L3070L
sV596.0
p1334
L2354L
sV649.00
p1335
L4146L
sV368.59
p1336
L7573L
sV386.30
p1337
L3299L
sVV04.82
p1338
L6638L
sV196.6
p1339
L6426L
sV093.89
p1340
L6808L
sV224.3
p1341
L6475L
sV722.80
p1342
L3006L
sV585.9
p1343
L500L
sV458.9
p1344
L443L
sV711.09
p1345
L5649L
sV495.9
p1346
L434L
sV625.4
p1347
L2235L
sV377.52
p1348
L6737L
sV237.79
p1349
L2789L
sV998.13
p1350
L2370L
sV789.46
p1351
L6435L
sV664.11
p1352
L7690L
sV969.73
p1353
L6852L
sV989.9
p1354
L3754L
sV910.0
p1355
L756L
sV448.9
p1356
L6564L
sV365.00
p1357
L863L
sV482.9
p1358
L350L
sV359.21
p1359
L7259L
sV252.8
p1360
L7501L
sV255.6
p1361
L5794L
sV716.13
p1362
L5234L
sV304.80
p1363
L2105L
sV997.02
p1364
L2901L
sVV41.6
p1365
L1218L
sV259.9
p1366
L427L
sV649.03
p1367
L6514L
sV288.69
p1368
L4133L
sV379.90
p1369
L4830L
sV959.2
p1370
L1258L
sV153.7
p1371
L6701L
sV690.10
p1372
L3237L
sV345.61
p1373
L6633L
sV300.9
p1374
L507L
sV730.19
p1375
L5694L
sV386.11
p1376
L653L
sVV28.3
p1377
L4850L
sV365.11
p1378
L191L
sV310.2
p1379
L3358L
sV907.5
p1380
L6578L
sV377.14
p1381
L1557L
sV536.42
p1382
L1845L
sV995.21
p1383
L3090L
sV053.29
p1384
L5115L
sV355.71
p1385
L2689L
sV789.7
p1386
L5082L
sV136.3
p1387
L5545L
sV362.33
p1388
L2222L
sV986
p1389
L3784L
sV315.34
p1390
L5960L
sV370.31
p1391
L7231L
sV380.23
p1392
L3136L
sV820.9
p1393
L2993L
sV873.40
p1394
L237L
sV392.9
p1395
L3908L
sV303.92
p1396
L777L
sV447.70
p1397
L4412L
sVE814.9
p1398
L4067L
sV878.2
p1399
L5270L
sV341.20
p1400
L6289L
sVE967.1
p1401
L6125L
sV746.5
p1402
L2294L
sV299.80
p1403
L4219L
sV372.62
p1404
L6010L
sV369.24
p1405
L6117L
sVV06.4
p1406
L6353L
sV173.4
p1407
L7435L
sV996.64
p1408
L1154L
sV041.82
p1409
L6121L
sV171.8
p1410
L6108L
sV331.6
p1411
L5978L
sV533.20
p1412
L3293L
sVV13.9
p1413
L5631L
sV700
p1414
L866L
sV282.41
p1415
L7503L
sV442.3
p1416
L1206L
sV641.03
p1417
L7073L
sVE878.1
p1418
L1093L
sV717.2
p1419
L4572L
sV277.02
p1420
L4948L
sV369.10
p1421
L2447L
sV780.96
p1422
L1004L
sV373.13
p1423
L570L
sV320.1
p1424
L2907L
sVV12.29
p1425
L1912L
sVV10.21
p1426
L2895L
sV805.9
p1427
L7153L
sV851.89
p1428
L7362L
sV967.9
p1429
L4026L
sV002.0
p1430
L4758L
sV212.0
p1431
L7132L
sVV22.2
p1432
L2744L
sV608.1
p1433
L5600L
sV053.10
p1434
L2638L
sVE941.1
p1435
L7209L
sV716.15
p1436
L6113L
sV835.03
p1437
L4815L
sV994.8
p1438
L2445L
sV959.5
p1439
L1759L
sVV55.6
p1440
L4951L
sV202.03
p1441
L1693L
sV414.0
p1442
L3761L
sVV63.1
p1443
L495L
sV180.9
p1444
L2490L
sV799.99
p1445
L6157L
sV416.8
p1446
L841L
sV349.0
p1447
L2931L
sV458.8
p1448
L2583L
sV749.20
p1449
L6639L
sV914.6
p1450
L2817L
sV281.9
p1451
L1412L
sV594.8
p1452
L6075L
sV525.40
p1453
L2582L
sV524.4
p1454
L5181L
sV851.86
p1455
L5227L
sV793.2
p1456
L844L
sVV58.75
p1457
L1391L
sVE826.1
p1458
L4284L
sV446.5
p1459
L2198L
sV784.51
p1460
L2473L
sV395.0
p1461
L3976L
sV206.10
p1462
L6741L
sV931
p1463
L2349L
sVV14.4
p1464
L5611L
sV036.0
p1465
L6537L
sV811.09
p1466
L5348L
sV724.09
p1467
L3283L
sV313.9
p1468
L6197L
sV239.2
p1469
L1074L
sVV64.1
p1470
L2696L
sV914.7
p1471
L4407L
sV493.21
p1472
L718L
sV292.2
p1473
L2995L
sV257.2
p1474
L2311L
sV922.9
p1475
L4206L
sV719.42
p1476
L577L
sV726.5
p1477
L535L
sV321.1
p1478
L6610L
sV304.90
p1479
L125L
sV574.31
p1480
L7144L
sV251.1
p1481
L2090L
sV435.9
p1482
L298L
sV231.2
p1483
L5243L
sV173.32
p1484
L4166L
sV748.3
p1485
L6418L
sVE945.7
p1486
L7135L
sV795.2
p1487
L2922L
sV871.2
p1488
L4243L
sV996.47
p1489
L712L
sV305.32
p1490
L6864L
sV290
p1491
L7571L
sV781.4
p1492
L3328L
sV453.86
p1493
L1590L
sV799.23
p1494
L5056L
sV733.03
p1495
L4251L
sV908.6
p1496
L6189L
sV783.0
p1497
L1438L
sV201.10
p1498
L3445L
sV054.43
p1499
L2446L
sV709.8
p1500
L980L
sV950.9
p1501
L7084L
sV305.10
p1502
L7400L
sV290.12
p1503
L7423L
sVV13.52
p1504
L4361L
sV110.5
p1505
L627L
sV736.1
p1506
L1662L
sV646.43
p1507
L2742L
sV593.73
p1508
L6609L
sV296.50
p1509
L638L
sV604.91
p1510
L5457L
sVV10.03
p1511
L3477L
sV535.30
p1512
L2547L
sV516.4
p1513
L518L
sV288.51
p1514
L1999L
sV041.10
p1515
L2328L
sV574.70
p1516
L5325L
sV505
p1517
L3822L
sVV45.71
p1518
L2203L
sV730.37
p1519
L6442L
sV989.84
p1520
L5462L
sVE967.4
p1521
L5641L
sVV10.79
p1522
L1694L
sV692.76
p1523
L6376L
sV995.84
p1524
L3215L
sV191.0
p1525
L5657L
sV780.09
p1526
L30L
sV376.30
p1527
L5521L
sV704.1
p1528
L5026L
sV590.81
p1529
L6260L
sV054.8
p1530
L4658L
sV795.13
p1531
L7119L
sV753.3
p1532
L2950L
sV381.02
p1533
L5439L
sVV86.1
p1534
L4548L
sV617.0
p1535
L5251L
sV151.1
p1536
L7757L
sV958.92
p1537
L6273L
sV336.8
p1538
L2407L
sV616.2
p1539
L3683L
sV322.2
p1540
L4075L
sV759.6
p1541
L4950L
sV233.39
p1542
L6159L
sV041.04
p1543
L1593L
sV796.0
p1544
L2469L
sV787.3
p1545
L494L
sV682.0
p1546
L1703L
sV353.1
p1547
L2759L
sVV43.89
p1548
L5907L
sV526.5
p1549
L6282L
sV642.93
p1550
L2749L
sV727.89
p1551
L3408L
sV995.92
p1552
L1110L
sV211.6
p1553
L5612L
sV188.8
p1554
L5516L
sV202.00
p1555
L1696L
sV294.8
p1556
L241L
sV625.0
p1557
L2170L
sV695.9
p1558
L2152L
sV053.21
p1559
L6171L
sV738.5
p1560
L2403L
sV850.2
p1561
L7490L
sV813.22
p1562
L4737L
sV764.09
p1563
L7807L
sV172.5
p1564
L2209L
sVV13.00
p1565
L4832L
sV996.39
p1566
L2258L
sV368.43
p1567
L4634L
sV999.2
p1568
L4445L
sV919.5
p1569
L2772L
sV596.1
p1570
L2495L
sV627.2
p1571
L1418L
sV331.83
p1572
L249L
sV389.21
p1573
L1450L
sVV68.09
p1574
L2134L
sV477.2
p1575
L3410L
sV405.91
p1576
L2335L
sV511.89
p1577
L1819L
sV567.29
p1578
L3946L
sV172.9
p1579
L2207L
sV370.60
p1580
L7246L
sV602.3
p1581
L3870L
sV783.43
p1582
L1727L
sVE933.0
p1583
L5706L
sV318.1
p1584
L1385L
sV588.0
p1585
L2448L
sV453.85
p1586
L1595L
sV435.3
p1587
L4571L
sV891.1
p1588
L1642L
sV372.12
p1589
L3022L
sV295.72
p1590
L1972L
sVE829.9
p1591
L272L
sV304.31
p1592
L3786L
sV721.41
p1593
L5714L
sV363.33
p1594
L5069L
sV232.7
p1595
L7602L
sV184.1
p1596
L7449L
sV333.82
p1597
L1603L
sV344.60
p1598
L2414L
sV711.04
p1599
L7644L
sV952.2
p1600
L6883L
sV781.2
p1601
L159L
sV255.2
p1602
L7729L
sV279.50
p1603
L7000L
sV790.91
p1604
L4477L
sV378.20
p1605
L2860L
sV990
p1606
L1852L
sV879.3
p1607
L1906L
sV213.0
p1608
L6068L
sV806.29
p1609
L5696L
sV648.31
p1610
L7615L
sV333.85
p1611
L616L
sV790.29
p1612
L487L
sV286.2
p1613
L7752L
sV583.2
p1614
L6398L
sV031.1
p1615
L4132L
sV744.02
p1616
L6660L
sV850.5
p1617
L3618L
sV275.42
p1618
L446L
sVV03.89
p1619
L5154L
sV607.3
p1620
L7233L
sV411.1
p1621
L823L
sV839.61
p1622
L5760L
sV015.10
p1623
L7188L
sV287.39
p1624
L398L
sVV76.51
p1625
L67L
sV300.14
p1626
L4104L
sV754.30
p1627
L4107L
sV250.31
p1628
L4794L
sV795.4
p1629
L6951L
sV352.5
p1630
L5692L
sV878.3
p1631
L3331L
sV904.9
p1632
L4258L
sV306.53
p1633
L5284L
sV459.9
p1634
L872L
sV810.00
p1635
L1353L
sV793.1
p1636
L2290L
sV813.07
p1637
L4742L
sV879.9
p1638
L2639L
sV873.8
p1639
L2563L
sV378.83
p1640
L4344L
sV712.20
p1641
L5943L
sV825.31
p1642
L7222L
sV870
p1643
L6452L
sV200.14
p1644
L5767L
sV564.89
p1645
L1431L
sV364.75
p1646
L6586L
sV910.2
p1647
L5452L
sV584.6
p1648
L5972L
sV230.2
p1649
L6858L
sV233.7
p1650
L6491L
sV715.80
p1651
L641L
sV318.2
p1652
L271L
sV286.6
p1653
L3943L
sVE988.3
p1654
L7024L
sV658.03
p1655
L2746L
sV465.8
p1656
L2049L
sV656.93
p1657
L4920L
sV493.90
p1658
L263L
sV310.9
p1659
L1971L
sV736.75
p1660
L6653L
sV522.6
p1661
L2231L
sV742.9
p1662
L1517L
sV796.77
p1663
L2074L
sV173.5
p1664
L7062L
sV839.08
p1665
L5709L
sVV57.3
p1666
L1034L
sVV28.4
p1667
L4041L
sVV85.22
p1668
L5096L
sV941.16
p1669
L6651L
sV780.8
p1670
L1139L
sV877.1
p1671
L2906L
sV284.01
p1672
L7667L
sV736.70
p1673
L175L
sV275.2
p1674
L431L
sV537.1
p1675
L1068L
sV632
p1676
L6318L
sVV53.4
p1677
L7783L
sV719.43
p1678
L130L
sV459.19
p1679
L6123L
sVV26.33
p1680
L5083L
sV943.01
p1681
L7634L
sV219.1
p1682
L4197L
sV365.13
p1683
L4404L
sVE980.5
p1684
L2617L
sV250.12
p1685
L3403L
sV525.9
p1686
L1967L
sV198.6
p1687
L2850L
sVE816.9
p1688
L7464L
sVV67.59
p1689
L822L
sV550.91
p1690
L1618L
sV674.32
p1691
L6522L
sV720.9
p1692
L3748L
sV999.59
p1693
L4650L
sVV45.75
p1694
L2544L
sV915.5
p1695
L6184L
sV530.19
p1696
L725L
sV996.04
p1697
L2183L
sVV19.11
p1698
L6930L
sV531.51
p1699
L7417L
sV333.89
p1700
L5956L
sV388.70
p1701
L937L
sV852.02
p1702
L5866L
sV696.5
p1703
L7437L
sV410.42
p1704
L2951L
sVE013.1
p1705
L5353L
sV140.9
p1706
L6686L
sV682.2
p1707
L1183L
sV537.89
p1708
L1414L
sV965.1
p1709
L3684L
sV945.01
p1710
L6316L
sV637.92
p1711
L7301L
sV590.10
p1712
L1583L
sV333.99
p1713
L4736L
sV100.0
p1714
L7715L
sV345.40
p1715
L1363L
sV730.92
p1716
L6310L
sV736.89
p1717
L3589L
sV912.0
p1718
L3491L
sVV45.86
p1719
L3715L
sV512.82
p1720
L4073L
sV041.9
p1721
L2971L
sVE968.7
p1722
L5208L
sV519.00
p1723
L5425L
sV188.1
p1724
L5034L
sV307.6
p1725
L2840L
sV717.0
p1726
L699L
sVE938.4
p1727
L3869L
sV729.5
p1728
L99L
sVE850.8
p1729
L6592L
sV263.9
p1730
L459L
sV197.4
p1731
L4703L
sV755.50
p1732
L7340L
sV333.1
p1733
L2226L
sV358.00
p1734
L3649L
sV305.61
p1735
L5150L
sVE894
p1736
L2314L
sV928.9
p1737
L5413L
sV995.20
p1738
L1222L
sV624.9
p1739
L1950L
sV917.2
p1740
L1648L
sV424.90
p1741
L1152L
sV676.90
p1742
L7325L
sV305.60
p1743
L497L
sV946.2
p1744
L457L
sV597.81
p1745
L7122L
sV327.09
p1746
L4471L
sV477.9
p1747
L106L
sV317.0
p1748
L4669L
sV980.9
p1749
L5293L
sV648.44
p1750
L5387L
sV386.40
p1751
L6749L
sV719.02
p1752
L3369L
sV576.3
p1753
L4638L
sV443.22
p1754
L6030L
sV618.5
p1755
L4499L
sVV45.73
p1756
L740L
sV242.40
p1757
L3131L
sV137.0
p1758
L7120L
sV458.0
p1759
L1188L
sVV41.8
p1760
L3357L
sV963.2
p1761
L2600L
sV293.84
p1762
L88L
sV718.57
p1763
L3597L
sV516.5
p1764
L5369L
sV737.10
p1765
L1816L
sV614.3
p1766
L2361L
sV837.0
p1767
L3056L
sV802.1
p1768
L5130L
sV979.0
p1769
L6046L
sVV28.82
p1770
L5206L
sV786.50
p1771
L58L
sVV65.40
p1772
L142L
sV722.81
p1773
L3304L
sV870.2
p1774
L6155L
sV593.4
p1775
L1784L
sV583.6
p1776
L5993L
sV277.00
p1777
L1718L
sV410.01
p1778
L3308L
sV307.7
p1779
L317L
sV521.12
p1780
L6162L
sVE927.9
p1781
L3240L
sV250.43
p1782
L1895L
sV153.3
p1783
L359L
sV726.4
p1784
L2821L
sV453.40
p1785
L1392L
sV040.0
p1786
L4027L
sV669.81
p1787
L7324L
sVV23.41
p1788
L4542L
sV041.84
p1789
L4947L
sV196.2
p1790
L3174L
sV370.23
p1791
L5830L
sV958.91
p1792
L7769L
sV567.82
p1793
L6015L
sV809.0
p1794
L5910L
sVV25.01
p1795
L5479L
sV629.9
p1796
L1109L
sV718.49
p1797
L1132L
sV173.72
p1798
L6146L
sV446.29
p1799
L5710L
sV296.80
p1800
L111L
sV200.20
p1801
L5665L
sVE919.7
p1802
L6892L
sV943.05
p1803
L6417L
sV719.54
p1804
L2072L
sV799.1
p1805
L778L
sV385.10
p1806
L3642L
sV533.90
p1807
L1551L
sV493.11
p1808
L3494L
sV371.50
p1809
L2685L
sV707.19
p1810
L1099L
sV730.25
p1811
L3702L
sV332.0
p1812
L887L
sV433.81
p1813
L7758L
sV845.02
p1814
L921L
sV414.01
p1815
L221L
sVE811.1
p1816
L4142L
sV011.20
p1817
L4149L
sV386.19
p1818
L4512L
sV730.98
p1819
L5174L
sV525.61
p1820
L5077L
sV574.21
p1821
L4822L
sV752.0
p1822
L5691L
sV715.18
p1823
L1688L
sV362.66
p1824
L3205L
sV552.8
p1825
L4697L
sV212.5
p1826
L7632L
sV812.30
p1827
L7605L
sV459.32
p1828
L4570L
sV540.1
p1829
L4212L
sV718.95
p1830
L3579L
sVV58.31
p1831
L98L
sV710.1
p1832
L2545L
sV624.6
p1833
L7504L
sVV90.81
p1834
L2819L
sV520.7
p1835
L5352L
sV426.4
p1836
L1091L
sV747.22
p1837
L6070L
sV525.51
p1838
L6163L
sV799.4
p1839
L1841L
sV795.03
p1840
L3361L
sV304.23
p1841
L2238L
sV890.2
p1842
L4656L
sVV44.0
p1843
L1944L
sVV25.42
p1844
L1370L
sV747.60
p1845
L4409L
sV801.20
p1846
L4898L
sVV53.31
p1847
L2526L
sV564.00
p1848
L567L
sV279.9
p1849
L6419L
sV296.82
p1850
L5529L
sV385.89
p1851
L6080L
sV386.10
p1852
L3486L
sVV56.0
p1853
L1739L
sVE878.3
p1854
L1846L
sV794.30
p1855
L775L
sV208.92
p1856
L120L
sV924.5
p1857
L72L
sV716.64
p1858
L7562L
sVE868.8
p1859
L5536L
sV185
p1860
L1226L
sV730.12
p1861
L4978L
sV301.7
p1862
L2284L
sV008.00
p1863
L6194L
sV183.2
p1864
L3525L
sV753.16
p1865
L4859L
sV822.1
p1866
L4694L
sVV73.81
p1867
L4733L
sV861.00
p1868
L5278L
sV841.1
p1869
L3126L
sV087.9
p1870
L7767L
sV381.89
p1871
L6839L
sV945.00
p1872
L4577L
sV381.62
p1873
L5305L
sV423.0
p1874
L7381L
sV425.3
p1875
L3570L
sV788.0
p1876
L805L
sV996.62
p1877
L1638L
sV965.09
p1878
L1877L
sV843.9
p1879
L1294L
sV836.0
p1880
L1323L
sV426.13
p1881
L1416L
sV716.47
p1882
L7272L
sV196.3
p1883
L3108L
sV291.2
p1884
L1550L
sV719.25
p1885
L7657L
sVV10.43
p1886
L4434L
sVE813.6
p1887
L5789L
sV836.2
p1888
L3611L
sV996.76
p1889
L1313L
sV388.32
p1890
L5438L
sV736.00
p1891
L4642L
sV952.09
p1892
L6590L
sV801.26
p1893
L4902L
sV389.00
p1894
L2686L
sV429.1
p1895
L4823L
sV795.08
p1896
L4335L
sVE865.9
p1897
L5840L
sV426.11
p1898
L1471L
sV146.8
p1899
L7082L
sV711.50
p1900
L4803L
sV309.1
p1901
L1655L
sV813.52
p1902
L4283L
sV052.8
p1903
L6595L
sV873.20
p1904
L4585L
sV575.11
p1905
L1187L
sVV56.32
p1906
L6833L
sV567.9
p1907
L4179L
sV321.4
p1908
L6251L
sV410.91
p1909
L2013L
sV715.33
p1910
L3107L
sV459.2
p1911
L1587L
sVV85.36
p1912
L3814L
sV852.29
p1913
L1600L
sV718.51
p1914
L1205L
sV296.21
p1915
L2273L
sV327.42
p1916
L6809L
sV780.03
p1917
L5762L
sV823.11
p1918
L5845L
sV339.44
p1919
L6422L
sV098.89
p1920
L5156L
sV434.90
p1921
L886L
sV997.91
p1922
L498L
sV910.9
p1923
L6281L
sVV12.41
p1924
L4345L
sV737.11
p1925
L4365L
sVE916
p1926
L2614L
sV284.1
p1927
L2590L
sV575.0
p1928
L2623L
sV741
p1929
L7701L
sV375.2
p1930
L7113L
sV924.4
p1931
L5298L
sV981
p1932
L6021L
sV380.4
p1933
L17L
sV305.22
p1934
L2464L
sV742.1
p1935
L4106L
sV368.45
p1936
L5574L
sV132.9
p1937
L7274L
sV780.59
p1938
L2816L
sV785.51
p1939
L2031L
sV791.3
p1940
L3924L
sV483.0
p1941
L5808L
sV173.31
p1942
L984L
sV372.75
p1943
L3243L
sV958.8
p1944
L807L
sV307.1
p1945
L2098L
sV362.76
p1946
L6783L
sV038.40
p1947
L4478L
sV715.91
p1948
L700L
sV633.80
p1949
L4839L
sV905.0
p1950
L4908L
sVV48.1
p1951
L5537L
sV818.1
p1952
L6667L
sVV40.1
p1953
L5361L
sV480.8
p1954
L2983L
sVV10.01
p1955
L6914L
sVV18.59
p1956
L6727L
sV730.18
p1957
L1126L
sV360.9
p1958
L5670L
sV806.69
p1959
L6942L
sV193
p1960
L424L
sV054.11
p1961
L5852L
sV440.30
p1962
L4972L
sV320.0
p1963
L7170L
sV711.77
p1964
L7486L
sV388.9
p1965
L1233L
sV438.12
p1966
L2015L
sVE935.4
p1967
L4224L
sV820.31
p1968
L6485L
sV275.40
p1969
L2319L
sV719.58
p1970
L705L
sV852.24
p1971
L7730L
sVV73.89
p1972
L3849L
sV716.28
p1973
L5892L
sV171.0
p1974
L5015L
sV249.91
p1975
L3428L
sV377.75
p1976
L3952L
sV910.1
p1977
L7651L
sV360.21
p1978
L2095L
sV302.6
p1979
L5028L
sVV12.09
p1980
L633L
sV727.3
p1981
L584L
sVV76.9
p1982
L6166L
sV812.03
p1983
L3281L
sV813.01
p1984
L3370L
sV531.50
p1985
L4110L
sV789.61
p1986
L3399L
sV564
p1987
L7439L
sV948.10
p1988
L6926L
sV238.0
p1989
L6153L
sV569.1
p1990
L668L
sV852.26
p1991
L4183L
sVV49.66
p1992
L5556L
sV540.0
p1993
L964L
sV707.15
p1994
L103L
sV792.9
p1995
L4497L
sV970.8
p1996
L7296L
sV682.6
p1997
L593L
sV720.2
p1998
L1407L
sV941.09
p1999
L2315L
sV437.7
p2000
L7245L
sV808.1
p2001
L4009L
sV870.1
p2002
L226L
sVE934.8
p2003
L7673L
sV805.07
p2004
L6438L
sVV43.62
p2005
L4932L
sV053.22
p2006
L4069L
sVV58.89
p2007
L713L
sV794.7
p2008
L6248L
sV523.42
p2009
L5408L
sV626.9
p2010
L2373L
sV637.32
p2011
L4210L
sV359.4
p2012
L305L
sV851.06
p2013
L2498L
sV601.4
p2014
L5538L
sV784.43
p2015
L6621L
sV427.5
p2016
L1327L
sV723.5
p2017
L1336L
sVE804.0
p2018
L4968L
sV536.3
p2019
L722L
sV707.09
p2020
L1060L
sV922.0
p2021
L5459L
sVV72.6
p2022
L5899L
sV301.9
p2023
L2286L
sV916.4
p2024
L2500L
sV790.94
p2025
L4152L
sV273.0
p2026
L1087L
sV370.52
p2027
L5592L
sV426.52
p2028
L2713L
sV003.1
p2029
L5080L
sVV42.0
p2030
L2321L
sV717.3
p2031
L1242L
sV813.43
p2032
L2454L
sVV55.1
p2033
L1145L
sV380.12
p2034
L4509L
sV716.10
p2035
L3855L
sV202.85
p2036
L2707L
sV305.92
p2037
L5250L
sV884.2
p2038
L7650L
sV304.62
p2039
L2784L
sV283.11
p2040
L7299L
sV601.0
p2041
L2356L
sV711.91
p2042
L3920L
sVV90.89
p2043
L681L
sVV03.82
p2044
L505L
sV298.4
p2045
L4554L
sV852.06
p2046
L5911L
sV250.52
p2047
L1578L
sVV58.81
p2048
L397L
sV474.00
p2049
L3013L
sV535.20
p2050
L1802L
sV729.82
p2051
L1453L
sV528.3
p2052
L1299L
sV289.50
p2053
L4216L
sV228.09
p2054
L1700L
sV112.3
p2055
L2275L
sV523.41
p2056
L4329L
sV995.55
p2057
L1738L
sV397.0
p2058
L858L
sV482.40
p2059
L4601L
sV942.01
p2060
L7263L
sV491.21
p2061
L140L
sV945.33
p2062
L7256L
sV423.3
p2063
L4474L
sV750.5
p2064
L6634L
sV724.70
p2065
L4588L
sV733.12
p2066
L4684L
sV066.41
p2067
L2322L
sV791.1
p2068
L6511L
sV575.9
p2069
L657L
sVE941.3
p2070
L5919L
sV305.33
p2071
L7554L
sV537.83
p2072
L4654L
sV756.10
p2073
L7195L
sVE015.0
p2074
L3866L
sV198.89
p2075
L2208L
sV333.71
p2076
L3550L
sV727.63
p2077
L3502L
sV608.82
p2078
L7384L
sV241.1
p2079
L1699L
sV813.04
p2080
L5941L
sV366.9
p2081
L299L
sV370.61
p2082
L3342L
sV344.30
p2083
L3851L
sV279.3
p2084
L2911L
sV873.49
p2085
L4272L
sV296.46
p2086
L2109L
sV296.35
p2087
L3726L
sV173.91
p2088
L2589L
sV346.52
p2089
L6893L
sV364.41
p2090
L5144L
sVV21.1
p2091
L7337L
sV525.52
p2092
L7721L
sV993.0
p2093
L7496L
sV153.5
p2094
L4700L
sV732.3
p2095
L6898L
sV304.30
p2096
L1459L
sV799
p2097
L1531L
sV922.33
p2098
L4141L
sV908.5
p2099
L6057L
sV941.35
p2100
L2300L
sV944.03
p2101
L3026L
sV305.63
p2102
L4025L
sV358.2
p2103
L4560L
sV371.02
p2104
L1814L
sVV49.70
p2105
L1647L
sV560.30
p2106
L6095L
sV372.55
p2107
L5888L
sV199.1
p2108
L2297L
sV541
p2109
L2481L
sV478.70
p2110
L2093L
sVV02.59
p2111
L6344L
sV176.9
p2112
L5659L
sV308.2
p2113
L6245L
sV941.33
p2114
L2299L
sV751.69
p2115
L3110L
sVV68.01
p2116
L3291L
sV996.79
p2117
L679L
sV376.33
p2118
L5025L
sV300.01
p2119
L1066L
sV339.20
p2120
L3789L
sV852.20
p2121
L1601L
sV884.1
p2122
L4945L
sV812.49
p2123
L7030L
sV482.83
p2124
L811L
sV831.03
p2125
L7422L
sV854
p2126
L7533L
sV736.41
p2127
L5101L
sVV71.4
p2128
L1354L
sVV65.9
p2129
L5417L
sV250.8
p2130
L7169L
sVE924.1
p2131
L5219L
sV195.0
p2132
L2823L
sV384.1
p2133
L6154L
sV370.20
p2134
L3221L
sV588.89
p2135
L3745L
sVV44.9
p2136
L4641L
sV041.09
p2137
L2868L
sV820.20
p2138
L1293L
sV312.81
p2139
L2440L
sV309.81
p2140
L210L
sV250.6
p2141
L6583L
sV972.6
p2142
L2252L
sVV76.49
p2143
L4395L
sV285
p2144
L7627L
sV203.01
p2145
L5454L
sV716.45
p2146
L7654L
sV447.72
p2147
L3781L
sVE917.5
p2148
L5701L
sV379.50
p2149
L2387L
sV420.0
p2150
L3401L
sV611.3
p2151
L683L
sV070.6
p2152
L7151L
sV802.0
p2153
L2551L
sV739.7
p2154
L3469L
sV602.9
p2155
L2675L
sV784.3
p2156
L48L
sV753.9
p2157
L3836L
sV045.21
p2158
L6494L
sVE987.0
p2159
L6219L
sV238.8
p2160
L2773L
sV593.81
p2161
L2079L
sV296.05
p2162
L5177L
sVV15.86
p2163
L6239L
sV352.3
p2164
L1365L
sVE000.9
p2165
L1833L
sV754.41
p2166
L7008L
sV379.8
p2167
L5756L
sV524.26
p2168
L4708L
sV813.45
p2169
L4800L
sVE976
p2170
L6227L
sV969.01
p2171
L6022L
sV276.2
p2172
L493L
sVV60.9
p2173
L3850L
sV508.1
p2174
L4985L
sV897.1
p2175
L3072L
sV942.20
p2176
L5871L
sV589.9
p2177
L1838L
sV753.8
p2178
L5088L
sV339.11
p2179
L5711L
sV596.7
p2180
L6837L
sV728.84
p2181
L3716L
sV290.9
p2182
L4161L
sV737.29
p2183
L3808L
sV173.92
p2184
L5017L
sV969.04
p2185
L7033L
sVV85.45
p2186
L3332L
sV518.83
p2187
L904L
sV213.4
p2188
L6385L
sV512.0
p2189
L3767L
sV342.00
p2190
L2259L
sVE987.9
p2191
L7668L
sV183.8
p2192
L7167L
sV865.11
p2193
L4158L
sV041.89
p2194
L1151L
sV188.4
p2195
L5242L
sV461
p2196
L7550L
sV853.00
p2197
L3935L
sV944.01
p2198
L7010L
sV374.11
p2199
L4782L
sVE910.8
p2200
L5165L
sV362.18
p2201
L6614L
sV401.0
p2202
L491L
sV733.22
p2203
L6772L
sVV49.74
p2204
L6186L
sV101
p2205
L7105L
sV057.0
p2206
L7716L
sVE917.8
p2207
L3305L
sV757.0
p2208
L2067L
sV784.2
p2209
L205L
sV425.9
p2210
L1657L
sV052.9
p2211
L6541L
sV273.4
p2212
L7366L
sV570
p2213
L2058L
sV621.31
p2214
L3028L
sV519.2
p2215
L5186L
sV714.30
p2216
L4187L
sV887.2
p2217
L6387L
sV362.73
p2218
L6498L
sV682.8
p2219
L1508L
sV813.80
p2220
L2541L
sV451.81
p2221
L6929L
sV626.1
p2222
L4296L
sV965.02
p2223
L3753L
sV430
p2224
L2452L
sV843.8
p2225
L2546L
sV353.4
p2226
L1247L
sV706.1
p2227
L1735L
sVV43.1
p2228
L251L
sV209.61
p2229
L6869L
sVV85.32
p2230
L912L
sV719.98
p2231
L664L
sVE816.2
p2232
L5349L
sV009.1
p2233
L1815L
sV358.01
p2234
L6275L
sV364.59
p2235
L5707L
sV760.5
p2236
L5280L
sV876.0
p2237
L3705L
sV872.10
p2238
L5575L
sV733.90
p2239
L287L
sV289.83
p2240
L7208L
sVE960.0
p2241
L757L
sV198.5
p2242
L1404L
sV991.4
p2243
L5164L
sV905.6
p2244
L4637L
sV441.7
p2245
L5742L
sV792.2
p2246
L6299L
sV249.01
p2247
L3566L
sV438.30
p2248
L4317L
sVV15.3
p2249
L1844L
sVV12.55
p2250
L1071L
sV455.8
p2251
L4211L
sV652.23
p2252
L7329L
sV374.33
p2253
L5558L
sV952.17
p2254
L4532L
sV736.09
p2255
L7339L
sV790.22
p2256
L2771L
sV726.2
p2257
L592L
sVV18.51
p2258
L5607L
sV656.73
p2259
L4921L
sV765.25
p2260
L6945L
sV706.2
p2261
L254L
sV840.5
p2262
L3791L
sV750.19
p2263
L7687L
sV180.0
p2264
L6488L
sV427.60
p2265
L3738L
sV729.89
p2266
L322L
sV821.29
p2267
L2832L
sV123.9
p2268
L2400L
sV565.0
p2269
L3041L
sV945.10
p2270
L2986L
sV733.11
p2271
L4351L
sV258.9
p2272
L2173L
sV705.89
p2273
L7313L
sV538
p2274
L7354L
sV996.32
p2275
L6407L
sV070.54
p2276
L301L
sV410.40
p2277
L2768L
sV362.35
p2278
L2533L
sVV68.9
p2279
L69L
sV410.70
p2280
L895L
sV345.50
p2281
L3083L
sV949.3
p2282
L7718L
sV811.00
p2283
L4490L
sV366.13
p2284
L4384L
sV716.29
p2285
L7581L
sVV79.98
p2286
L7458L
sV344.1
p2287
L1913L
sV305.02
p2288
L2480L
sV162.2
p2289
L6133L
sV854.00
p2290
L52L
sV995.60
p2291
L7351L
sV438.53
p2292
L6403L
sV556.9
p2293
L3349L
sV633.90
p2294
L4840L
sV786.0
p2295
L4651L
sVE854.0
p2296
L2512L
sV738.4
p2297
L744L
sV727.06
p2298
L554L
sV821.30
p2299
L5824L
sV376.51
p2300
L6700L
sV941.20
p2301
L2310L
sVE988.9
p2302
L64L
sV719.15
p2303
L3926L
sV552.9
p2304
L3116L
sV380.15
p2305
L1559L
sV284.9
p2306
L3736L
sV912.7
p2307
L7002L
sV173.41
p2308
L6425L
sVV80.01
p2309
L5723L
sVE892
p2310
L7764L
sV941.25
p2311
L2303L
sV756.2
p2312
L5609L
sV074.3
p2313
L5094L
sV464.10
p2314
L2884L
sV551.20
p2315
L4327L
sVV58.9
p2316
L2415L
sV173.90
p2317
L1935L
sV292.84
p2318
L4285L
sV646.84
p2319
L4865L
sVV12.71
p2320
L1505L
sV364.53
p2321
L5075L
sV531.71
p2322
L5579L
sV904.41
p2323
L5837L
sVV10.85
p2324
L3387L
sV380.10
p2325
L1384L
sV378.31
p2326
L4346L
sV996.91
p2327
L7500L
sVV53.6
p2328
L2260L
sV519.01
p2329
L5426L
sV555.9
p2330
L2833L
sV897.2
p2331
L3691L
sV488.01
p2332
L4798L
sV466.19
p2333
L1924L
sV996.1
p2334
L1873L
sV337.00
p2335
L1465L
sV338.19
p2336
L113L
sV753.5
p2337
L4759L
sV250.92
p2338
L1279L
sV906.8
p2339
L3033L
sV959.12
p2340
L3239L
sV789.30
p2341
L1224L
sV733.19
p2342
L1780L
sV955.3
p2343
L247L
sV836.1
p2344
L1324L
sV736.20
p2345
L3487L
sV759.1
p2346
L3044L
sVE950.4
p2347
L2249L
sVE905.2
p2348
L6824L
sV789.51
p2349
L3210L
sV276.52
p2350
L3175L
sV751.7
p2351
L4521L
sV716.31
p2352
L7182L
sV285.0
p2353
L1022L
sV722.32
p2354
L5797L
sV226
p2355
L4690L
sV027.2
p2356
L4486L
sVE001.0
p2357
L2612L
sV204.90
p2358
L4933L
sV958.90
p2359
L7770L
sV600.00
p2360
L558L
sV288.9
p2361
L3269L
sV909.9
p2362
L5768L
sV705.21
p2363
L5916L
sV733.43
p2364
L5481L
sV572.3
p2365
L468L
sVV58.41
p2366
L3948L
sV874.8
p2367
L4762L
sV719.92
p2368
L5614L
sV518.84
p2369
L1395L
sV300.21
p2370
L2225L
sV147.9
p2371
L6463L
sV786.39
p2372
L3394L
sV953.0
p2373
L6388L
sV953.4
p2374
L6728L
sV276.1
p2375
L269L
sV285.8
p2376
L412L
sV160.8
p2377
L5209L
sV312.20
p2378
L4374L
sV296.23
p2379
L1991L
sV296.00
p2380
L1607L
sV333.72
p2381
L2412L
sV999.39
p2382
L5589L
sV618.09
p2383
L3402L
sV753.12
p2384
L2086L
sV564.6
p2385
L3983L
sV389.10
p2386
L834L
sV746.81
p2387
L6599L
sVV77.91
p2388
L594L
sV237.1
p2389
L6734L
sV288.63
p2390
L5717L
sVE884.9
p2391
L1511L
sV305.30
p2392
L5492L
sV327.53
p2393
L3327L
sV831.09
p2394
L7134L
sV249.41
p2395
L1806L
sVV44.6
p2396
L2243L
sVE812.8
p2397
L7138L
sV789.67
p2398
L2007L
sV521.00
p2399
L288L
sV442.83
p2400
L6212L
sV364.21
p2401
L6148L
sV707.24
p2402
L1133L
sV770.88
p2403
L7517L
sV861.22
p2404
L4682L
sV473.8
p2405
L2380L
sV719.59
p2406
L2830L
sV743.53
p2407
L6480L
sV600.10
p2408
L3458L
sV379.29
p2409
L7037L
sV152.9
p2410
L2197L
sV728.86
p2411
L4062L
sV523.23
p2412
L5431L
sV582.81
p2413
L6045L
sV816.02
p2414
L1659L
sV779.3
p2415
L7726L
sV454.0
p2416
L180L
sV362.13
p2417
L4433L
sV925.1
p2418
L7626L
sV646.81
p2419
L4925L
sV780.97
p2420
L27L
sV184.4
p2421
L3184L
sV344.04
p2422
L3586L
sV780.50
p2423
L707L
sV985.9
p2424
L4928L
sVE849.5
p2425
L1834L
sV153.8
p2426
L2695L
sV277.89
p2427
L3820L
sV256.0
p2428
L5531L
sVV06.9
p2429
L4515L
sV202.78
p2430
L6572L
sV618.00
p2431
L960L
sV455.7
p2432
L7782L
sV709.2
p2433
L2774L
sV318.00
p2434
L7320L
sV172.7
p2435
L4511L
sV941.00
p2436
L5330L
sV334.4
p2437
L6339L
sV840.6
p2438
L1704L
sV752.64
p2439
L5138L
sV851.01
p2440
L5905L
sV754.81
p2441
L3563L
sVV10.69
p2442
L2712L
sV378.53
p2443
L7616L
sV304.83
p2444
L2102L
sVE988.8
p2445
L5221L
sV758
p2446
L2990L
sV716.87
p2447
L7624L
sVV25.49
p2448
L3360L
sV743.00
p2449
L7633L
sV230.5
p2450
L6608L
sV523.31
p2451
L4202L
sV852.11
p2452
L7438L
sVV23.84
p2453
L3340L
sV270.3
p2454
L5333L
sV521.03
p2455
L4347L
sV270.9
p2456
L4314L
sV216.8
p2457
L4215L
sV378.24
p2458
L2857L
sVE914
p2459
L3666L
sVE924.2
p2460
L5424L
sV788.65
p2461
L2636L
sV317
p2462
L1445L
sVE878.4
p2463
L1797L
sV995.53
p2464
L2867L
sV386.9
p2465
L4103L
sV364.42
p2466
L1713L
sV368.30
p2467
L5928L
sV712.24
p2468
L7227L
sV159.9
p2469
L3727L
sV869.0
p2470
L4011L
sV942.10
p2471
L5323L
sV363.35
p2472
L7675L
sV346.31
p2473
L3049L
sV756.17
p2474
L4278L
sV250.33
p2475
L4796L
sV808.41
p2476
L4467L
sV707.06
p2477
L3385L
sV152.2
p2478
L4701L
sV523.33
p2479
L7708L
sV236.90
p2480
L7574L
sV312.39
p2481
L781L
sV824.2
p2482
L1382L
sVE881.0
p2483
L3140L
sV992.7
p2484
L7087L
sVV16.42
p2485
L4176L
sV731.3
p2486
L5693L
sV715.15
p2487
L1269L
sV919.8
p2488
L3128L
sVV48.3
p2489
L7805L
sV381.81
p2490
L1437L
sV373.02
p2491
L3996L
sV354.3
p2492
L4496L
sV812.20
p2493
L2333L
sV728.9
p2494
L742L
sV372.89
p2495
L6176L
sV707.10
p2496
L1166L
sV666.24
p2497
L6507L
sV288.66
p2498
L4614L
sV239.1
p2499
L2826L
sV341.22
p2500
L7607L
sV715.13
p2501
L147L
sV205.01
p2502
L6215L
sV272.5
p2503
L1539L
sV708.1
p2504
L5149L
sVV45.72
p2505
L1538L
sVE938.0
p2506
L6375L
sVV53.90
p2507
L4097L
sV616.3
p2508
L6345L
sV202.90
p2509
L2709L
sV435.2
p2510
L1422L
sV204.11
p2511
L2710L
sV298.3
p2512
L7584L
sV153.9
p2513
L342L
sV757.5
p2514
L3489L
sV250.73
p2515
L1644L
sVV72.63
p2516
L680L
sV521.9
p2517
L5526L
sVV61.21
p2518
L4510L
sV905.2
p2519
L2336L
sVV87.02
p2520
L2224L
sV945.03
p2521
L6379L
sV305.70
p2522
L2120L
sVE918
p2523
L1661L
sV786.30
p2524
L847L
sV529.3
p2525
L5961L
sV308.3
p2526
L2418L
sV704.8
p2527
L1930L
sV327.21
p2528
L730L
sV285.22
p2529
L2924L
sV739.2
p2530
L1003L
sV017.00
p2531
L4558L
sV414.03
p2532
L6115L
sV357.5
p2533
L2700L
sV478.34
p2534
L6252L
sV536.1
p2535
L5985L
sV924.10
p2536
L1507L
sV188.6
p2537
L1786L
sV596.2
p2538
L1156L
sV162.8
p2539
L5397L
sV625.5
p2540
L6149L
sV716.38
p2541
L7547L
sVV81.1
p2542
L5148L
sV150.1
p2543
L5878L
sV379.04
p2544
L7109L
sV560.1
p2545
L1728L
sV041.02
p2546
L2869L
sV361.81
p2547
L3335L
sV301.20
p2548
L2893L
sV916.1
p2549
L2721L
sV556.0
p2550
L3806L
sV708.0
p2551
L2316L
sV365.60
p2552
L2359L
sV573.8
p2553
L749L
sV200.02
p2554
L4811L
sV717.89
p2555
L3039L
sV097.1
p2556
L2606L
sV371.03
p2557
L4129L
sVV78.1
p2558
L1503L
sV473.1
p2559
L1429L
sV966.3
p2560
L4724L
sV295.20
p2561
L3664L
sV743.45
p2562
L7348L
sV599.81
p2563
L4648L
sV971.3
p2564
L3202L
sV216.3
p2565
L2872L
sV365.89
p2566
L2665L
sV379.39
p2567
L1670L
sV480.9
p2568
L1411L
sV094.9
p2569
L6259L
sV736.02
p2570
L4319L
sV781.91
p2571
L3405L
sV786.59
p2572
L61L
sV617.5
p2573
L7147L
sV249.61
p2574
L5193L
sV365.73
p2575
L190L
sV078.19
p2576
L1800L
sV420.91
p2577
L3796L
sV723.3
p2578
L3852L
sVV25.2
p2579
L2485L
sV363.40
p2580
L6036L
sVE814.7
p2581
L3829L
sV369.60
p2582
L256L
sV756.16
p2583
L5522L
sV525.69
p2584
L5232L
sV348.9
p2585
L945L
sV941.29
p2586
L2304L
sV216.5
p2587
L3092L
sVE922.9
p2588
L7220L
sV715.34
p2589
L580L
sV197.0
p2590
L426L
sV369.70
p2591
L2389L
sV823.82
p2592
L4545L
sV674.14
p2593
L6524L
sV250.42
p2594
L1178L
sV537.3
p2595
L5577L
sV369.8
p2596
L6170L
sV441.1
p2597
L7445L
sV727.2
p2598
L6269L
sVV45.88
p2599
L3739L
sV301.89
p2600
L3466L
sV377.10
p2601
L1629L
sV011.90
p2602
L3670L
sV753.11
p2603
L3312L
sV926.0
p2604
L7560L
sV659.70
p2605
L7665L
sV862.1
p2606
L7434L
sV052.0
p2607
L6544L
sV729.1
p2608
L596L
sV245.2
p2609
L2716L
sV486
p2610
L53L
sV562.11
p2611
L196L
sVE007.5
p2612
L6019L
sV727.09
p2613
L2831L
sV590.80
p2614
L1103L
sV038.43
p2615
L5121L
sV842.12
p2616
L3127L
sV787.20
p2617
L743L
sV941.10
p2618
L5477L
sV238.74
p2619
L6346L
sV881.00
p2620
L2611L
sV756.89
p2621
L7674L
sV728.12
p2622
L6255L
sV372.63
p2623
L1957L
sV847.4
p2624
L3379L
sVV46.11
p2625
L1939L
sV293.83
p2626
L2114L
sVV16.41
p2627
L3931L
sV078.4
p2628
L7331L
sV307.47
p2629
L1675L
sV780.01
p2630
L36L
sV385.9
p2631
L4234L
sV495.0
p2632
L6424L
sV159.0
p2633
L3825L
sV722.82
p2634
L3167L
sVV17.2
p2635
L6242L
sV836.3
p2636
L1938L
sV304.40
p2637
L2416L
sV594.2
p2638
L4000L
sV523.8
p2639
L3572L
sV782.5
p2640
L2187L
sV182.8
p2641
L5938L
sV941.26
p2642
L6649L
sV661.01
p2643
L3260L
sV484.6
p2644
L7022L
sV346.11
p2645
L2835L
sVV13.51
p2646
L3964L
sV525.0
p2647
L6588L
sVV13.01
p2648
L1564L
sVE980.0
p2649
L1876L
sV300.11
p2650
L1371L
sV516.32
p2651
L6548L
sVV42.6
p2652
L5682L
sV805.8
p2653
L4443L
sV664.01
p2654
L3634L
sV367.0
p2655
L372L
sV996.61
p2656
L2043L
sV838.00
p2657
L1898L
sV834.01
p2658
L3501L
sV250.21
p2659
L4664L
sV379.09
p2660
L6082L
sV575.2
p2661
L2289L
sV065.4
p2662
L4293L
sVE879.2
p2663
L1851L
sV305.9
p2664
L6496L
sV370.32
p2665
L6460L
sV305.41
p2666
L5489L
sV801.10
p2667
L4900L
sV607.82
p2668
L4747L
sV999.99
p2669
L4118L
sV785.3
p2670
L5343L
sV369.21
p2671
L3966L
sV802.21
p2672
L4519L
sV710.4
p2673
L4078L
sV042
p2674
L908L
sV128.9
p2675
L7582L
sVV10.04
p2676
L2543L
sV231.9
p2677
L6243L
sV649.43
p2678
L2740L
sV088.9
p2679
L6188L
sV880.12
p2680
L7419L
sV053.19
p2681
L539L
sV839.42
p2682
L5313L
sV787.23
p2683
L1611L
sV530.84
p2684
L6267L
sV716.89
p2685
L5929L
sV375.55
p2686
L4169L
sVV72.84
p2687
L870L
sV444.09
p2688
L5501L
sV807.08
p2689
L4277L
sV726.31
p2690
L2937L
sV011.40
p2691
L5414L
sV640.93
p2692
L4844L
sV648.73
p2693
L2741L
sV756.4
p2694
L6664L
sV371.01
p2695
L5809L
sV440.29
p2696
L2358L
sV531.00
p2697
L4667L
sV438.82
p2698
L2705L
sV447.3
p2699
L2681L
sVV15.59
p2700
L1499L
sV307.23
p2701
L3533L
sV459.81
p2702
L1452L
sVE924.9
p2703
L6049L
sV941.07
p2704
L7612L
sV959.9
p2705
L232L
sVV10.42
p2706
L1887L
sV625.8
p2707
L2279L
sV655.83
p2708
L4538L
sV459.89
p2709
L815L
sV423.9
p2710
L946L
sV708.5
p2711
L7338L
sV617.9
p2712
L4838L
sVE899
p2713
L464L
sV343.0
p2714
L3547L
sV032.9
p2715
L6975L
sVV57.81
p2716
L6261L
sV823.21
p2717
L4452L
sVV03.81
p2718
L5783L
sV998.09
p2719
L4893L
sVV49.83
p2720
L2941L
sV274.0
p2721
L4553L
sV716.56
p2722
L5673L
sVE819.7
p2723
L4518L
sV911.9
p2724
L7261L
sVE883.9
p2725
L6081L
sVV72.5
p2726
L340L
sV567.38
p2727
L2004L
sV201.91
p2728
L5482L
sV590.00
p2729
L5688L
sV598.1
p2730
L6848L
sV999.32
p2731
L3577L
sV969.79
p2732
L6853L
sVV66.4
p2733
L4465L
sV716.97
p2734
L1829L
sV943.20
p2735
L5586L
sV640.83
p2736
L7305L
sV522.0
p2737
L3873L
sV992.5
p2738
L3763L
sV715.96
p2739
L11L
sV716.49
p2740
L5448L
sV403.00
p2741
L2888L
sV973.0
p2742
L2076L
sV250.62
p2743
L944L
sV746.02
p2744
L7652L
sV880.23
p2745
L7224L
sV801.16
p2746
L4899L
sV377.01
p2747
L6781L
sV427.9
p2748
L438L
sV008.01
p2749
L7691L
sV451.84
p2750
L5554L
sV659.11
p2751
L3264L
sV295.51
p2752
L7604L
sV279.10
p2753
L5194L
sV582.9
p2754
L3837L
sV190.8
p2755
L6735L
sVV63.2
p2756
L3708L
sV934.0
p2757
L3840L
sVV53.1
p2758
L5998L
sV709.09
p2759
L2425L
sV795.10
p2760
L7703L
sV384.82
p2761
L1955L
sVV74.5
p2762
L607L
sV607.81
p2763
L7161L
sVV85.51
p2764
L4818L
sVV72.86
p2765
L2699L
sV094.3
p2766
L6709L
sV173.02
p2767
L6739L
sVV86.0
p2768
L1989L
sV289.89
p2769
L2052L
sV345.11
p2770
L1725L
sV707.07
p2771
L1059L
sV850.0
p2772
L3198L
sV532.01
p2773
L6995L
sV914.8
p2774
L3306L
sV624.8
p2775
L3681L
sV952.00
p2776
L5465L
sV098.0
p2777
L5153L
sV788.31
p2778
L941L
sV824.8
p2779
L275L
sV276.0
p2780
L856L
sV941.28
p2781
L7479L
sV786.01
p2782
L3609L
sV913.1
p2783
L1998L
sV288.03
p2784
L2216L
sV361.05
p2785
L5450L
sV790.01
p2786
L2568L
sV369.74
p2787
L4336L
sVE821.2
p2788
L6554L
sV610.0
p2789
L1892L
sV362.04
p2790
L1181L
sV655.93
p2791
L4916L
sV196.9
p2792
L2854L
sV964.1
p2793
L7740L
sV525.53
p2794
L6414L
sV343.9
p2795
L1716L
sVV22.1
p2796
L1484L
sV805.06
p2797
L5375L
sV378.23
p2798
L2859L
sV208.11
p2799
L6742L
sV681.10
p2800
L1198L
sVV58.73
p2801
L3238L
sV367.20
p2802
L1254L
sV996.78
p2803
L1118L
sV616.11
p2804
L4480L
sV244.3
p2805
L974L
sV362.29
p2806
L3975L
sV367.1
p2807
L878L
sV239.81
p2808
L6097L
sV680.0
p2809
L5367L
sV622.7
p2810
L6371L
sV438.85
p2811
L1979L
sVV72.81
p2812
L177L
sV204.00
p2813
L2920L
sV727.60
p2814
L5610L
sV646.93
p2815
L4846L
sV618.01
p2816
L1625L
sV285.29
p2817
L697L
sV572.0
p2818
L2057L
sV808.43
p2819
L4008L
sV571.2
p2820
L814L
sV789.03
p2821
L382L
sV295.04
p2822
L7735L
sV620.9
p2823
L3375L
sVV67.4
p2824
L1177L
sV054.2
p2825
L5288L
sV112.0
p2826
L526L
sV862.8
p2827
L6301L
sV998.6
p2828
L4473L
sVV72.41
p2829
L2277L
sV223.0
p2830
L3064L
sV759.0
p2831
L7403L
sV200.00
p2832
L6222L
sV581.9
p2833
L1934L
sV278.8
p2834
L3197L
sV999.82
p2835
L5178L
sV995.64
p2836
L3655L
sVE980.3
p2837
L772L
sVV25.43
p2838
L3636L
sVE818.0
p2839
L2735L
sV823.40
p2840
L4093L
sVV15.85
p2841
L1589L
sV238.3
p2842
L7713L
sVV28.89
p2843
L3254L
sV652.00
p2844
L6921L
sV719.41
p2845
L217L
sV901.9
p2846
L4603L
sV791.2
p2847
L3414L
sV437.2
p2848
L2690L
sV156.2
p2849
L5225L
sV294.9
p2850
L924L
sV304.32
p2851
L7124L
sV270.1
p2852
L7455L
sV362.37
p2853
L4204L
sV952.05
p2854
L6017L
sV647.63
p2855
L7064L
sV301.51
p2856
L6056L
sV747.82
p2857
L3934L
sV395.9
p2858
L4627L
sV735.9
p2859
L2327L
sV289.9
p2860
L3208L
sVV01.5
p2861
L7032L
sV805.03
p2862
L5311L
sVV87.49
p2863
L6048L
sV478.21
p2864
L7322L
sV410.41
p2865
L2012L
sV170.1
p2866
L6616L
sV426.51
p2867
L1879L
sV783.42
p2868
L3639L
sV227.1
p2869
L6624L
sV533.00
p2870
L5257L
sV852.09
p2871
L7780L
sV879.7
p2872
L4382L
sVV85.35
p2873
L521L
sV127.9
p2874
L7564L
sV054.9
p2875
L2790L
sV934.1
p2876
L7121L
sV742.0
p2877
L6886L
sV153.2
p2878
L3779L
sV425.8
p2879
L1943L
sV573.2
p2880
L7587L
sVE966
p2881
L2567L
sV694.4
p2882
L6611L
sVE884.5
p2883
L3422L
sV345.2
p2884
L4936L
sV935.0
p2885
L5557L
sV320.89
p2886
L4072L
sV727.66
p2887
L7298L
sV454.8
p2888
L179L
sV267
p2889
L7356L
sV355.5
p2890
L2659L
sV195.3
p2891
L3120L
sV995.62
p2892
L3654L
sV737.19
p2893
L1928L
sV807.00
p2894
L59L
sV525.62
p2895
L5231L
sVV75.8
p2896
L3453L
sV943.1
p2897
L6925L
sV975.8
p2898
L6596L
sV417.8
p2899
L5279L
sV215.5
p2900
L6174L
sV350.2
p2901
L1983L
sV296.61
p2902
L240L
sV977.8
p2903
L768L
sV366.33
p2904
L3972L
sV342.12
p2905
L3440L
sVV45.84
p2906
L6991L
sV360.20
p2907
L5820L
sV249.90
p2908
L3574L
sV345.51
p2909
L4729L
sV730.29
p2910
L5124L
sV718.28
p2911
L6791L
sV277.01
p2912
L7732L
sV733.7
p2913
L6671L
sV718.85
p2914
L4692L
sV070.44
p2915
L2172L
sV283.9
p2916
L3805L
sVV49.89
p2917
L714L
sV658.93
p2918
L2748L
sV919.2
p2919
L5066L
sV629.31
p2920
L5726L
sV719.06
p2921
L10L
sV879.2
p2922
L2047L
sV719.82
p2923
L7194L
sV318
p2924
L6769L
sVV77.5
p2925
L6298L
sV304.71
p2926
L2515L
sV273.3
p2927
L3448L
sVV67.9
p2928
L753L
sV173.0
p2929
L7683L
sV143.9
p2930
L4704L
sV372.20
p2931
L2718L
sV343.8
p2932
L1754L
sV718.83
p2933
L3148L
sV216.0
p2934
L6244L
sV724.8
p2935
L610L
sV690
p2936
L7648L
sV873.60
p2937
L3301L
sV410.20
p2938
L4333L
sV312.00
p2939
L2444L
sV284.19
p2940
L2552L
sV216.1
p2941
L571L
sV795.82
p2942
L6662L
sV110.6
p2943
L7440L
sV070.32
p2944
L3902L
sV368.11
p2945
L5875L
sV379.32
p2946
L7184L
sV416.0
p2947
L1742L
sVV43.4
p2948
L4371L
sV209.23
p2949
L6135L
sV518.89
p2950
L423L
sV643.83
p2951
L3252L
sV209.72
p2952
L2847L
sVV12.1
p2953
L2021L
sV323.01
p2954
L5931L
sVV07.31
p2955
L2070L
sV778.2
p2956
L7316L
sV368.60
p2957
L6840L
sV998.12
p2958
L406L
sVE956
p2959
L2267L
sVV79.8
p2960
L3421L
sV573.3
p2961
L670L
sVV90.11
p2962
L5811L
sV790.7
p2963
L417L
sV342.80
p2964
L4185L
sV747.40
p2965
L7098L
sV531.91
p2966
L1561L
sV482.89
p2967
L3196L
sV585
p2968
L4995L
sV257.9
p2969
L3893L
sV778.6
p2970
L6482L
sV194.1
p2971
L6459L
sV275.01
p2972
L5886L
sV556.6
p2973
L3347L
sV567.21
p2974
L5725L
sV274.89
p2975
L5773L
sV585.1
p2976
L2237L
sV500
p2977
L4827L
sV725
p2978
L2381L
sV747.10
p2979
L7038L
sVV70.2
p2980
L4375L
sV846.8
p2981
L3915L
sV530.13
p2982
L1702L
sV972.0
p2983
L6504L
sVV12.42
p2984
L2915L
sV917.7
p2985
L2593L
sVV23.9
p2986
L3256L
sV788.61
p2987
L5613L
sVV07.8
p2988
L1350L
sV378.9
p2989
L3187L
sV807.01
p2990
L1280L
sV534.00
p2991
L6823L
sV388.11
p2992
L5440L
sV743.41
p2993
L6817L
sVE904.3
p2994
L7672L
sVV49.75
p2995
L1901L
sV425.4
p2996
L735L
sV202.01
p2997
L1843L
sV945.12
p2998
L7110L
sV578.9
p2999
L868L
sV448.0
p3000
L7508L
sV348.8
p3001
L6105L
sV521.23
p3002
L6917L
sVV28.6
p3003
L3257L
sVE986
p3004
L2631L
sV799.8
p3005
L7457L
sV608.4
p3006
L3792L
sVE879.0
p3007
L5029L
sV808.42
p3008
L6702L
sV873.52
p3009
L5308L
sV865.03
p3010
L7369L
sV171.2
p3011
L5766L
sV141.0
p3012
L6203L
sV599.0
p3013
L139L
sV305.20
p3014
L804L
sV770.7
p3015
L3953L
sV715.31
p3016
L2060L
sV376.01
p3017
L2904L
sV664.00
p3018
L7593L
sVE980.6
p3019
L5283L
sV511.9
p3020
L56L
sV996.63
p3021
L1881L
sVV61.8
p3022
L5229L
sV712.34
p3023
L5007L
sV730.01
p3024
L6309L
sVV49.73
p3025
L1171L
sV789.06
p3026
L361L
sV344.89
p3027
L2180L
sV429.83
p3028
L4290L
sV232.3
p3029
L1808L
sV820.09
p3030
L385L
sVV13.64
p3031
L6584L
sVV77.1
p3032
L1523L
sV172.8
p3033
L2210L
sV965.8
p3034
L5052L
sV733.00
p3035
L281L
sV381.20
p3036
L7408L
sVV46.2
p3037
L522L
sV812.02
p3038
L3336L
sV301.50
p3039
L2100L
sVV85.30
p3040
L1496L
sV823.91
p3041
L4262L
sV378.00
p3042
L2393L
sV742.4
p3043
L5004L
sV7194S
p3044
L6835L
sVV58.42
p3045
L4392L
sV911.5
p3046
L958L
sVV10.44
p3047
L6598L
sV304.42
p3048
L6854L
sV807.10
p3049
L5944L
sV996.83
p3050
L2014L
sV530.21
p3051
L3922L
sV438.2
p3052
L7405L
sV172.3
p3053
L4088L
sV296.7
p3054
L799L
sV345.91
p3055
L1368L
sV922.32
p3056
L2891L
sV951.5
p3057
L3003L
sV642.63
p3058
L2743L
sV535.10
p3059
L524L
sV661.20
p3060
L7473L
sV738.3
p3061
L4681L
sV008.2
p3062
L7234L
sV288.1
p3063
L6560L
sV786.09
p3064
L347L
sV862.29
p3065
L3372L
sV916.3
p3066
L3037L
sVE870.9
p3067
L5338L
sV813.11
p3068
L7711L
sV910.3
p3069
L7591L
sV820.21
p3070
L997L
sV676.93
p3071
L7074L
sV349.31
p3072
L5145L
sV726.64
p3073
L4455L
sV863.81
p3074
L4260L
sVV61.9
p3075
L3999L
sV502
p3076
L3821L
sV099.3
p3077
L6613L
sV366.15
p3078
L304L
sV160.2
p3079
L7590L
sVV09.91
p3080
L3460L
sV287.4
p3081
L5309L
sV873.59
p3082
L4112L
sVV72.82
p3083
L1189L
sV593.9
p3084
L477L
sV574.80
p3085
L4417L
sV788.2
p3086
L5836L
sV928.10
p3087
L5326L
sV369.13
p3088
L6623L
sV440.23
p3089
L877L
sV304.41
p3090
L5299L
sVE890.2
p3091
L4517L
sVE005.0
p3092
L5633L
sV759.7
p3093
L3949L
sV011.60
p3094
L5848L
sV447.9
p3095
L1424L
sV944.11
p3096
L2443L
sV429.9
p3097
L942L
sVV44.4
p3098
L2807L
sV722.91
p3099
L1195L
sV375.21
p3100
L6330L
sV172.6
p3101
L6091L
sV151.8
p3102
L6997L
sV017.50
p3103
L4586L
sV864.03
p3104
L7375L
sV783.3
p3105
L1038L
sV873.42
p3106
L228L
sVV85.1
p3107
L1552L
sVE825.1
p3108
L6087L
sVV13.59
p3109
L3404L
sV955.9
p3110
L3923L
sVV49.5
p3111
L6680L
sV614.6
p3112
L5249L
sV364.74
p3113
L3229L
sV719.51
p3114
L2337L
sV853.01
p3115
L4907L
sVV42.9
p3116
L7015L
sV727.40
p3117
L3350L
sVV16.40
p3118
L5642L
sV519.19
p3119
L346L
sV741.93
p3120
L4281L
sV987.1
p3121
L4712L
sVV74.9
p3122
L3750L
sV997.60
p3123
L1640L
sV654.53
p3124
L4535L
sVE941.2
p3125
L5637L
sV410.31
p3126
L6373L
sV598.00
p3127
L4877L
sV099.0
p3128
L3658L
sV250.61
p3129
L1634L
sV389.06
p3130
L3474L
sV078.0
p3131
L1768L
sV189.8
p3132
L7130L
sV299
p3133
L5329L
sV337.9
p3134
L2651L
sV810.03
p3135
L1364L
sV482.82
p3136
L4820L
sV455.4
p3137
L4982L
sVE958.0
p3138
L776L
sV255.42
p3139
L7187L
sV998.31
p3140
L3118L
sV641.23
p3141
L6515L
sV374.46
p3142
L4949L
sV179
p3143
L4581L
sV781.94
p3144
L951L
sVV16.9
p3145
L825L
sV415.0
p3146
L2188L
sV234.9
p3147
L7595L
sVV61.03
p3148
L7328L
sV372.40
p3149
L1812L
sV926.11
p3150
L7163L
sVV49.76
p3151
L3271L
sVE821.9
p3152
L5059L
sV516.34
p3153
L3899L
sV427.41
p3154
L3319L
sV366.50
p3155
L1213L
sVV54.15
p3156
L1174L
sV155.2
p3157
L1011L
sV607.89
p3158
L5151L
sV881.02
p3159
L3621L
sVE928.8
p3160
L460L
sV671.44
p3161
L5472L
sV719.52
p3162
L5795L
sV369.12
p3163
L4117L
sV389.22
p3164
L3159L
sV714.81
p3165
L5460L
sV571.41
p3166
L5965L
sV719.68
p3167
L6233L
sVE905.4
p3168
L5268L
sV842.00
p3169
L132L
sV835.01
p3170
L6478L
sV511.1
p3171
L3459L
sV813.82
p3172
L5286L
sV698.2
p3173
L4875L
sV593.2
p3174
L332L
sV716.67
p3175
L6224L
sV296.43
p3176
L4269L
sVE960.1
p3177
L2947L
sV378.73
p3178
L7738L
sVV23.49
p3179
L5469L
sV996.77
p3180
L1332L
sV813.81
p3181
L1291L
sV373.9
p3182
L4240L
sV200.30
p3183
L3717L
sV244.2
p3184
L5527L
sV574.51
p3185
L1666L
sV796.6
p3186
L5131L
sVV49.62
p3187
L6185L
sV747.89
p3188
L7100L
sV238.1
p3189
L3058L
sV608.81
p3190
L7756L
sV960.8
p3191
L4957L
sV659.63
p3192
L7065L
sV642.01
p3193
L4863L
sV216.7
p3194
L4297L
sV209.69
p3195
L6698L
sV310.89
p3196
L5058L
sV715.00
p3197
L982L
sV947.1
p3198
L2307L
sVV41.2
p3199
L2362L
sV564.7
p3200
L4640L
sV482.81
p3201
L7046L
sV343.3
p3202
L5141L
sV789.66
p3203
L3436L
sV907.2
p3204
L2160L
sV307.81
p3205
L239L
sV426.82
p3206
L2010L
sV346.01
p3207
L2323L
sV173.42
p3208
L4599L
sV749.00
p3209
L6640L
sV719.99
p3210
L4828L
sV897.6
p3211
L4631L
sV438.51
p3212
L4679L
sV365.83
p3213
L4576L
sV287.9
p3214
L2554L
sV753.17
p3215
L3833L
sV378.54
p3216
L4101L
sV300.5
p3217
L955L
sV331.2
p3218
L1556L
sV996.88
p3219
L3578L
sV174.6
p3220
L6470L
sVV46.14
p3221
L6389L
sV820.8
p3222
L386L
sVE941.0
p3223
L7544L
sV529.1
p3224
L4373L
sV282.42
p3225
L7383L
sV533.50
p3226
L5580L
sV452
p3227
L2422L
sV733.93
p3228
L4699L
sV373.01
p3229
L4018L
sV209.31
p3230
L4575L
sV726.65
p3231
L1900L
sV173.52
p3232
L4391L
sV296.24
p3233
L3998L
sVV65.49
p3234
L831L
sVV81.9
p3235
L7178L
sV823.01
p3236
L3001L
sV360.89
p3237
L7177L
sV726.39
p3238
L4730L
sV230.1
p3239
L5877L
sV799.01
p3240
L2792L
sVV10.9
p3241
L6104L
sVV67.00
p3242
L365L
sV868.10
p3243
L4763L
sV305
p3244
L800L
sV263.1
p3245
L4081L
sV336.9
p3246
L1135L
sV790.4
p3247
L1576L
sV201.94
p3248
L5818L
sV707.03
p3249
L1125L
sVV15.80
p3250
L5648L
sV702.8
p3251
L3352L
sV846.1
p3252
L4589L
sV290.13
p3253
L2511L
sV754.62
p3254
L5002L
sV908.1
p3255
L7267L
sV261
p3256
L2000L
sV996.65
p3257
L5855L
sV284.81
p3258
L1584L
sV976.6
p3259
L6382L
sV271.3
p3260
L46L
sV256.4
p3261
L4438L
sV551.1
p3262
L5999L
sV388.30
p3263
L835L
sV412
p3264
L547L
sV569.82
p3265
L2779L
sV453.89
p3266
L2519L
sV215.9
p3267
L5514L
sV447.0
p3268
L1470L
sV523.40
p3269
L5429L
sV695.0
p3270
L7018L
sV789.34
p3271
L3595L
sV553.29
p3272
L4189L
sV270.0
p3273
L6821L
sV960.9
p3274
L4131L
sV416.9
p3275
L2598L
sVV58.53
p3276
L5411L
sV154.3
p3277
L6236L
sV368.40
p3278
L3062L
sVV77.2
p3279
L6327L
sV394.1
p3280
L1378L
sV370.8
p3281
L7052L
sV363.70
p3282
L5409L
sV719.09
p3283
L3800L
sV228.04
p3284
L3008L
sVE823.0
p3285
L6718L
sV355.6
p3286
L865L
sV293.9
p3287
L4953L
sV721.1
p3288
L1707L
sV897.5
p3289
L6050L
sV718.13
p3290
L6546L
sV337.3
p3291
L7287L
sV643.00
p3292
L7041L
sV381.4
p3293
L2382L
sV788.69
p3294
L550L
sVE920.2
p3295
L5295L
sV147.1
p3296
L6535L
sV997.9
p3297
L6493L
sV790.95
p3298
L3532L
sV438.84
p3299
L1992L
sV524.29
p3300
L7284L
sV379.42
p3301
L4469L
sV488.81
p3302
L3395L
sV746.85
p3303
L3248L
sV997.62
p3304
L1639L
sV319
p3305
L259L
sV337.01
p3306
L3247L
sV729.31
p3307
L5923L
sV225.9
p3308
L7264L
sVV60.1
p3309
L6246L
sVV70.5
p3310
L1010L
sV317.00
p3311
L6574L
sV3430
p3312
L4833L
sV733.01
p3313
L1241L
sV794.09
p3314
L2599L
sV270.8
p3315
L7452L
sVV64.41
p3316
L2982L
sV944.08
p3317
L4318L
sV695.89
p3318
L3100L
sV229.9
p3319
L5223L
sVE967.3
p3320
L2564L
sVE925.9
p3321
L6101L
sV357.82
p3322
L3231L
sVV07.4
p3323
L3043L
sV993.1
p3324
L6679L
sV157.3
p3325
L6568L
sV236.7
p3326
L5240L
sVE906.2
p3327
L5292L
sV593.1
p3328
L3959L
sV282.49
p3329
L7013L
sV171.9
p3330
L4208L
sVV62.82
p3331
L2106L
sV737.41
p3332
L4055L
sV628.9
p3333
L3017L
sV286.53
p3334
L6392L
sV433.10
p3335
L257L
sV733.42
p3336
L3962L
sV363.20
p3337
L2733L
sV258.01
p3338
L7295L
sV079.88
p3339
L7258L
sV459.11
p3340
L3384L
sV434.00
p3341
L4091L
sV656.61
p3342
L7042L
sV718.30
p3343
L4961L
sVV72.31
p3344
L658L
sV913.4
p3345
L5272L
sV519.09
p3346
L2885L
sV730.78
p3347
L7588L
sV787.6
p3348
L3273L
sV483.1
p3349
L6270L
sV996.59
p3350
L2006L
sV813.31
p3351
L7260L
sV346.13
p3352
L4423L
sV471.9
p3353
L1985L
sV362.70
p3354
L5258L
sVV10.83
p3355
L1929L
sV810.01
p3356
L5620L
sV157.1
p3357
L4645L
sV723.6
p3358
L4994L
sV997.49
p3359
L1052L
sV134.8
p3360
L6876L
sV440.31
p3361
L4714L
sV706.3
p3362
L1473L
sV296.81
p3363
L6140L
sV690.18
p3364
L4155L
sV363.9
p3365
L7027L
sV525.20
p3366
L5850L
sV038.0
p3367
L962L
sVE927.8
p3368
L1828L
sV161.8
p3369
L4992L
sV372.51
p3370
L517L
sV277.4
p3371
L1553L
sV780.55
p3372
L3280L
sVV66.5
p3373
L6815L
sV719.84
p3374
L5345L
sV208.91
p3375
L2896L
sV373.31
p3376
L6778L
sV405.19
p3377
L2424L
sV242.00
p3378
L4573L
sV803.09
p3379
L7390L
sV371.22
p3380
L3542L
sV882.0
p3381
L290L
sV319.0
p3382
L2505L
sV716.18
p3383
L655L
sV250.72
p3384
L1681L
sV455.9
p3385
L3797L
sVV25.03
p3386
L5385L
sVV02.54
p3387
L2365L
sVV53.99
p3388
L4264L
sV796.2
p3389
L40L
sV704.09
p3390
L4878L
sVV16.6
p3391
L5098L
sV736.30
p3392
L5041L
sVV11.8
p3393
L2574L
sV304.91
p3394
L1491L
sV788.5
p3395
L1314L
sVV05.9
p3396
L1282L
sV533.21
p3397
L6826L
sV344.01
p3398
L3588L
sV276.61
p3399
L3323L
sV487.1
p3400
L741L
sV403.9
p3401
L4604L
sV404.92
p3402
L4610L
sV377.21
p3403
L5793L
sVE812.0
p3404
L486L
sV968.5
p3405
L6552L
sV404.11
p3406
L2032L
sV364.03
p3407
L7784L
sVV58.63
p3408
L1565L
sV945.22
p3409
L463L
sV624.01
p3410
L5740L
sV624.1
p3411
L1627L
sV360.44
p3412
L7155L
sV996.85
p3413
L4313L
sV719.65
p3414
L3409L
sV711.45
p3415
L4038L
sVE840.8
p3416
L7214L
sV622.0
p3417
L6675L
sV429.89
p3418
L5684L
sV451
p3419
L7800L
sV268.9
p3420
L134L
sV992.9
p3421
L4910L
sV209.74
p3422
L2846L
sV820.02
p3423
L1794L
sV045.10
p3424
L5463L
sV622.9
p3425
L3513L
sV262
p3426
L2001L
sV832.2
p3427
L6736L
sV429.3
p3428
L855L
sV969.72
p3429
L1488L
sV295.80
p3430
L2150L
sV372.02
p3431
L4440L
sV296.64
p3432
L2576L
sV595.1
p3433
L4612L
sV349.82
p3434
L2999L
sV490
p3435
L482L
sV726.79
p3436
L1977L
sV716.94
p3437
L2801L
sV782.61
p3438
L2964L
sV924.00
p3439
L1303L
sV295.85
p3440
L5735L
sV365.65
p3441
L5829L
sVV64.2
p3442
L715L
sV783.41
p3443
L2909L
sV571.0
p3444
L2558L
sV779.9
p3445
L5039L
sVV49.9
p3446
L5018L
sV692.0
p3447
L6003L
sV421.9
p3448
L4890L
sV242.90
p3449
L970L
sV245.1
p3450
L7346L
sVE935.2
p3451
L1330L
sV372.81
p3452
L4082L
sV719.93
p3453
L3583L
sV458.1
p3454
L1255L
sV724.02
p3455
L709L
sV202.82
p3456
L4563L
sV521.20
p3457
L2264L
sV588.1
p3458
L6044L
sV298.2
p3459
L44L
sVV14.2
p3460
L737L
sVV43.64
p3461
L393L
sV692.4
p3462
L2815L
sV648.80
p3463
L4540L
sV314.9
p3464
L1970L
sV378.30
p3465
L4713L
sV295.60
p3466
L5736L
sV384.23
p3467
L5746L
sV553.8
p3468
L1230L
sV369.00
p3469
L1909L
sV654.00
p3470
L6201L
sV079.4
p3471
L6606L
sV959.7
p3472
L794L
sV190.9
p3473
L6738L
sV334.0
p3474
L6672L
sV813.44
p3475
L2019L
sVV69.0
p3476
L5046L
sV896.1
p3477
L4984L
sV997.69
p3478
L1646L
sV202.08
p3479
L6937L
sV820.11
p3480
L1000L
sVV43.7
p3481
L5807L
sV962.7
p3482
L4751L
sV781.0
p3483
L323L
sV210.2
p3484
L4042L
sV233.0
p3485
L183L
sV571.40
p3486
L1113L
sV402.11
p3487
L2962L
sV156.0
p3488
L2587L
sVE944.3
p3489
L4466L
sVV82.9
p3490
L597L
sV372.14
p3491
L530L
sV873.50
p3492
L3652L
sV390
p3493
L6355L
sV916.5
p3494
L5006L
sV788.33
p3495
L260L
sV455.1
p3496
L5335L
sV344.9
p3497
L321L
sV370.21
p3498
L3233L
sVV15.88
p3499
L318L
sV309.82
p3500
L6041L
sV453.52
p3501
L4447L
sV730.05
p3502
L2777L
sVE824.9
p3503
L4227L
sV788.34
p3504
L2977L
sV648.93
p3505
L2736L
sV795.11
p3506
L6337L
sV625.1
p3507
L6221L
sV288.02
p3508
L1409L
sV715.20
p3509
L4719L
sVV40.2
p3510
L3626L
sV282.9
p3511
L6820L
sV333.9
p3512
L7492L
sVE939.2
p3513
L4125L
sV611.9
p3514
L2347L
sV278.01
p3515
L695L
sV795.00
p3516
L1485L
sV375.54
p3517
L7760L
sV535.40
p3518
L634L
sV730.28
p3519
L1124L
sV525.60
p3520
L6124L
sV567.22
p3521
L1157L
sV733.95
p3522
L4139L
sV414.3
p3523
L6374L
sV813.47
p3524
L4801L
sV781.93
p3525
L7787L
sV592.9
p3526
L2798L
sV852.39
p3527
L7514L
sV365.9
p3528
L2218L
sVV76.89
p3529
L2459L
sV739.3
p3530
L1001L
sV756.9
p3531
L4886L
sV783.40
p3532
L1037L
sVV45.3
p3533
L2887L
sV996.82
p3534
L3179L
sVV99.99
p3535
L5455L
sV079.0
p3536
L6678L
sV146.7
p3537
L7391L
sV569.44
p3538
L6607L
sV715.28
p3539
L3580L
sV875.0
p3540
L2037L
sV459.10
p3541
L4757L
sV292.0
p3542
L2177L
sVV48.0
p3543
L7754L
sV380.01
p3544
L4458L
sV307.89
p3545
L1857L
sV791.7
p3546
L2318L
sV780.63
p3547
L5713L
sV796.9
p3548
L1248L
sVV04.7
p3549
L6877L
sV474.12
p3550
L6604L
sV756.71
p3551
L5700L
sVV72.9
p3552
L6646L
sVV62.4
p3553
L3623L
sV969.5
p3554
L5128L
sV379.24
p3555
L276L
sV345.81
p3556
L5023L
sV295.74
p3557
L2151L
sV787.5
p3558
L5168L
sV366.22
p3559
L7212L
sVV42.89
p3560
L5423L
sV305.01
p3561
L1L
sV249.80
p3562
L3149L
sV730.22
p3563
L4979L
sV378.50
p3564
L7629L
sV718.05
p3565
L4754L
sV534.91
p3566
L7778L
sV296.65
p3567
L4416L
sV388.0
p3568
L4089L
sV560.89
p3569
L344L
sV024
p3570
L4386L
sV995.29
p3571
L852L
sV690.11
p3572
L3508L
sV878.1
p3573
L7232L
sV718.53
p3574
L5963L
sV527.8
p3575
L5567L
sV556.3
p3576
L5380L
sV896.0
p3577
L3540L
sV622.8
p3578
L5918L
sV493.91
p3579
L2064L
sV553.00
p3580
L4415L
sVE849.8
p3581
L311L
sV141.9
p3582
L7079L
sV956.9
p3583
L7429L
sV562.13
p3584
L5071L
sV686.9
p3585
L1092L
sV649.73
p3586
L4539L
sV727.02
p3587
L3732L
sV835.10
p3588
L6920L
sV730.20
p3589
L2215L
sV305.23
p3590
L7412L
sV754.61
p3591
L2905L
sV607.85
p3592
L6288L
sV365.22
p3593
L3968L
sVV58.72
p3594
L4525L
sV995.83
p3595
L2946L
sV866
p3596
L5022L
sV269.0
p3597
L6972L
sV966.1
p3598
L1444L
sV707.11
p3599
L2778L
sV861.20
p3600
L6759L
sV755.8
p3601
L7415L
sV728.79
p3602
L5043L
sV843.0
p3603
L5954L
sV260
p3604
L3245L
sV759.82
p3605
L6779L
sV596.81
p3606
L5062L
sV438.89
p3607
L154L
sV944.10
p3608
L2442L
sV812.44
p3609
L3519L
sV354.8
p3610
L5775L
sV803.40
p3611
L4911L
sV786.51
p3612
L531L
sV815.01
p3613
L3659L
sV557.9
p3614
L1212L
sV201.90
p3615
L3514L
sV237.72
p3616
L6594L
sV367.4
p3617
L127L
sV457.2
p3618
L1204L
sV435.0
p3619
L5238L
sV384.9
p3620
L2645L
sV588.9
p3621
L2711L
sV807.09
p3622
L1598L
sV518.4
p3623
L1464L
sV737.40
p3624
L7451L
sVV61.10
p3625
L5112L
sV366.00
p3626
L3098L
sV015.00
p3627
L4975L
sVE819.4
p3628
L7404L
sV357.4
p3629
L542L
sV123.1
p3630
L5518L
sV812.01
p3631
L2506L
sV312.30
p3632
L2503L
sV520.6
p3633
L2405L
sV339.3
p3634
L3643L
sV617.1
p3635
L7623L
sVE946.0
p3636
L7044L
sVE924.8
p3637
L3034L
sV736.05
p3638
L2280L
sV276.51
p3639
L28L
sV242.20
p3640
L3288L
sV319.
p3641
L7534L
sV709.00
p3642
L4552L
sV790.8
p3643
L6102L
sV848.42
p3644
L3965L
sV099.50
p3645
L7203L
sV641.80
p3646
L329L
sV970.81
p3647
L2144L
sV718.41
p3648
L6924L
sV327.8
p3649
L6370L
sV537.9
p3650
L1610L
sV718.88
p3651
L5314L
sV381.9
p3652
L5862L
sV715.22
p3653
L7186L
sV743.56
p3654
L5925L
sV296.13
p3655
L6796L
sV346.83
p3656
L6272L
sVV58.0
p3657
L3810L
sV781
p3658
L5260L
sV728.71
p3659
L1240L
sV532.50
p3660
L7520L
sV297.9
p3661
L2154L
sV716.17
p3662
L3687L
sV050.00
p3663
L3846L
sV451.0
p3664
L4686L
sV131.9
p3665
L5395L
sV841.8
p3666
L5942L
sV715.09
p3667
L85L
sV928.3
p3668
L4783L
sV680.2
p3669
L4359L
sV616.9
p3670
L3741L
sV567.0
p3671
L7011L
sV553.21
p3672
L2634L
sV391.9
p3673
L6324L
sV532.71
p3674
L6647L
sVV23.5
p3675
L4369L
sV369.15
p3676
L6290L
sV466.11
p3677
L1917L
sVV13.65
p3678
L3562L
sV388.10
p3679
L4795L
sV625.2
p3680
L7223L
sV595.2
p3681
L2517L
sV352.4
p3682
L7336L
sV235.4
p3683
L6192L
sV335.22
p3684
L7714L
sV923.00
p3685
L1321L
sV174.3
p3686
L5037L
sV635.90
p3687
L2704L
sV719.45
p3688
L188L
sVV05.8
p3689
L614L
sV873.44
p3690
L2499L
sV746.4
p3691
L5887L
sV288.60
p3692
L108L
sV789.1
p3693
L444L
sVV18.61
p3694
L7047L
sV780.62
p3695
L4676L
sVV65.3
p3696
L1733L
sV881.20
p3697
L6333L
sV648.23
p3698
L5201L
sV424.0
p3699
L752L
sV381.10
p3700
L2913L
sV344.31
p3701
L7006L
sV230.7
p3702
L339L
sV578.1
p3703
L335L
sVV58.77
p3704
L3275L
sV780.71
p3705
L2164L
sV438.31
p3706
L5623L
sV367.22
p3707
L2200L
sV158.8
p3708
L7020L
sV374.52
p3709
L5843L
sV379.41
p3710
L1358L
sV957.9
p3711
L2051L
sV434.11
p3712
L4695L
sV730.16
p3713
L3430L
sVE888.9
p3714
L29L
sV110.2
p3715
L6202L
sV756.70
p3716
L7217L
sV031.8
p3717
L6693L
sV932
p3718
L5541L
sV327.26
p3719
L731L
sV238.72
p3720
L4628L
sV202.93
p3721
L6168L
sV733.16
p3722
L4459L
sV996.44
p3723
L5966L
sVV09.0
p3724
L3348L
sV805.04
p3725
L5315L
sV334.8
p3726
L7053L
sVV16.0
p3727
L1753L
sV837.1
p3728
L5569L
sV607.9
p3729
L590L
sV716.40
p3730
L3960L
sV506.0
p3731
L7599L
sV902.40
p3732
L3883L
sVV13.09
p3733
L3345L
sVV58.76
p3734
L6404L
sV790.21
p3735
L1586L
sV852.22
p3736
L3449L
sV369.63
p3737
L6547L
sV742.3
p3738
L6350L
sV914.3
p3739
L7502L
sV313.23
p3740
L7538L
sV752.49
p3741
L7463L
sV428.21
p3742
L1749L
sV749.11
p3743
L6637L
sV726.73
p3744
L312L
sV799.89
p3745
L2897L
sV879.5
p3746
L3330L
sVV06.2
p3747
L6295L
sV173.49
p3748
L2753L
sV151.9
p3749
L3824L
sV906.0
p3750
L5038L
sV447.71
p3751
L5741L
sV201.50
p3752
L5484L
sVV12.01
p3753
L3989L
sV296.34
p3754
L1228L
sV272.6
p3755
L6941L
sV272.8
p3756
L1260L
sVV16.8
p3757
L4394L
sV487.8
p3758
L1369L
sV648.00
p3759
L2738L
sVE888.1
p3760
L1512L
sV942.14
p3761
L3020L
sV041.5
p3762
L5031L
sV718.03
p3763
L7610L
sV789.04
p3764
L646L
sV814.09
p3765
L3362L
sV524.04
p3766
L6842L
sV860.5
p3767
L6579L
sV752.61
p3768
L3457L
sV852.03
p3769
L5912L
sVV12.72
p3770
L645L
sV290.11
p3771
L7395L
sV605
p3772
L2357L
sV200.35
p3773
L7019L
sV921.3
p3774
L3970L
sV300.0
p3775
L6851L
sV969.4
p3776
L774L
sV272.2
p3777
L216L
sV984.9
p3778
L4868L
sV652.01
p3779
L6705L
sV282.47
p3780
L7159L
sV153.4
p3781
L3651L
sV389.20
p3782
L1762L
sV008.46
p3783
L4556L
sV707.12
p3784
L2229L
sV602.2
p3785
L5638L
sV078.11
p3786
L2667L
sV795.02
p3787
L6462L
sV945.13
p3788
L6342L
sV915.2
p3789
L3765L
sV235.2
p3790
L1756L
sV327.19
p3791
L4424L
sV893.0
p3792
L1461L
sV783.1
p3793
L2166L
sV718.55
p3794
L5844L
sV210.5
p3795
L5786L
sV771.1
p3796
L7768L
sV288.8
p3797
L2035L
sV482.1
p3798
L1399L
sV438.14
p3799
L3606L
sV363.32
p3800
L3443L
sVV14.1
p3801
L1088L
sV426.6
p3802
L3287L
sV616.50
p3803
L3186L
sV250.41
p3804
L2949L
sV943.31
p3805
L6927L
sV295.44
p3806
L2463L
sV797
p3807
L890L
sV427.2
p3808
L5427L
sV009.3
p3809
L2764L
sV718.17
p3810
L4678L
sV965.00
p3811
L1487L
sV251.8
p3812
L1009L
sVV85.0
p3813
L1840L
sV370.54
p3814
L5792L
sV698.4
p3815
L3296L
sV784.5
p3816
L6669L
sVE828.2
p3817
L2536L
sVV67.6
p3818
L1569L
sV911.1
p3819
L6196L
sV770.14
p3820
L1940L
sV312.31
p3821
L6383L
sV184.0
p3822
L4481L
sV041.3
p3823
L2158L
sV203.02
p3824
L6752L
sVV09.80
p3825
L4746L
sV722.6
p3826
L986L
sVV10.91
p3827
L5074L
sVE855.1
p3828
L5332L
sVE888.8
p3829
L996L
sV245.9
p3830
L1286L
sV362.07
p3831
L1123L
sV222.2
p3832
L3412L
sV362.03
p3833
L3227L
sV216.9
p3834
L933L
sVV03.1
p3835
L6218L
sV365.12
p3836
L1208L
sV824.9
p3837
L4195L
sV736.73
p3838
L6977L
sV573.1
p3839
L2461L
sV807.19
p3840
L5170L
sV332.1
p3841
L916L
sV804.04
p3842
L5398L
sV721.7
p3843
L6114L
sV616.10
p3844
L282L
sVV15.03
p3845
L3906L
sV345.00
p3846
L1288L
sV717.49
p3847
L5110L
sV755.69
p3848
L5359L
sV361.03
p3849
L6866L
sV315.35
p3850
L5179L
sV095.9
p3851
L2605L
sV327.52
p3852
L1572L
sV506.1
p3853
L6077L
sV377.49
p3854
L5776L
sV914.5
p3855
L1049L
sV621.2
p3856
L2438L
sVE819.9
p3857
L2717L
sV309
p3858
L6532L
sV210.4
p3859
L4306L
sVV58.43
p3860
L2075L
sV717.1
p3861
L1776L
sV237.0
p3862
L1408L
sV716.90
p3863
L270L
sVE878.5
p3864
L1643L
sV610.3
p3865
L682L
sV701.5
p3866
L3511L
sV478.30
p3867
L2899L
sV158.0
p3868
L6131L
sV315.2
p3869
L1090L
sV692.6
p3870
L6137L
sV799.0
p3871
L5542L
sV589.0
p3872
L7156L
sV917.4
p3873
L4602L
sV923.09
p3874
L4184L
sV802.4
p3875
L4002L
sV286.0
p3876
L6181L
sV794.9
p3877
L842L
sV051.2
p3878
L4120L
sV795.5
p3879
L4248L
sV387.1
p3880
L6177L
sV372.71
p3881
L2502L
sV324.9
p3882
L4974L
sVV72.0
p3883
L371L
sV366.18
p3884
L2684L
sV718.81
p3885
L1200L
sV478.9
p3886
L4383L
sV714.2
p3887
L4188L
sV997.39
p3888
L4619L
sV295.82
p3889
L2729L
sVV13.81
p3890
L6280L
sV291.81
p3891
L762L
sV557.0
p3892
L1433L
sV808.3
p3893
L7601L
sVV42.81
p3894
L2386L
sV038.49
p3895
L1144L
sV525.22
p3896
L6622L
sV618.2
p3897
L6806L
sV249.60
p3898
L907L
sV374.9
p3899
L5498L
sV421.0
p3900
L1636L
sV263.0
p3901
L1396L
sV524.61
p3902
L5841L
sV959.01
p3903
L204L
sV579.3
p3904
L5228L
sVV17.0
p3905
L3752L
sV730.02
p3906
L4977L
sV730.14
p3907
L3605L
sV446.6
p3908
L876L
sV441.01
p3909
L4987L
sV834.02
p3910
L6266L
sV307.3
p3911
L6635L
sV718.44
p3912
L2800L
sV727.03
p3913
L1207L
sV273.2
p3914
L5884L
sV365.70
p3915
L2992L
sV299.0
p3916
L5328L
sV515
p3917
L1217L
sV295.33
p3918
L7045L
sV233.1
p3919
L2341L
sV996.30
p3920
L2474L
sVE852.9
p3921
L5176L
sV694.5
p3922
L4963L
sV327.29
p3923
L6661L
sV730.13
p3924
L5839L
sV601.1
p3925
L2633L
sV701.9
p3926
L1315L
sVE825.7
p3927
L6086L
sV719.17
p3928
L7792L
sV807.11
p3929
L6479L
sV704.2
p3930
L6850L
sV730.21
p3931
L2214L
sV726.61
p3932
L562L
sVV76.41
p3933
L2775L
sV916.8
p3934
L3832L
sV788.36
p3935
L5727L
sV917.6
p3936
L2141L
sVE911
p3937
L6731L
sV681.00
p3938
L1736L
sV823.90
p3939
L4775L
sV901.0
p3940
L7370L
sVV80.1
p3941
L2470L
sV915.7
p3942
L4406L
sV941.38
p3943
L7478L
sVE927.3
p3944
L4897L
sV574.90
p3945
L1667L
sV626.6
p3946
L2497L
sV521.81
p3947
L3863L
sV369.4
p3948
L930L
sV666.12
p3949
L7469L
sV838.05
p3950
L2654L
sV957.1
p3951
L2808L
sVV70.1
p3952
L7772L
sV786.9
p3953
L729L
sV695.13
p3954
L2839L
sV789.33
p3955
L1596L
sV572.2
p3956
L22L
sV600.21
p3957
L624L
sV930.8
p3958
L5197L
sV560.2
p3959
L726L
sVV25.11
p3960
L2278L
sV205.02
p3961
L5772L
sV394.2
p3962
L861L
sV854.06
p3963
L4420L
sV219.0
p3964
L7483L
sVV15.02
p3965
L4362L
sV277.7
p3966
L830L
sVV45.11
p3967
L1302L
sV254.8
p3968
L6625L
sV873.41
p3969
L5456L
sV078.81
p3970
L5967L
sV997.5
p3971
L3546L
sV232.6
p3972
L3551L
sV574.00
p3973
L2622L
sV575.10
p3974
L2185L
sV315.31
p3975
L2900L
sV508.9
p3976
L3945L
sV202.86
p3977
L6402L
sV461.2
p3978
L4876L
sV293.89
p3979
L5433L
sV204.80
p3980
L4402L
sVV01.79
p3981
L1591L
sVE935.9
p3982
L6274L
sV371.23
p3983
L5904L
sV304.93
p3984
L1462L
sV564.81
p3985
L2261L
sVV10.87
p3986
L441L
sV848.9
p3987
L2632L
sVV16.1
p3988
L5097L
sV865.01
p3989
L4159L
sV426.89
p3990
L1880L
sV728.0
p3991
L4956L
sV202.72
p3992
L6571L
sV433.30
p3993
L630L
sV704.02
p3994
L3838L
sV272.3
p3995
L4162L
sV969.8
p3996
L4722L
sV300.02
p3997
L920L
sVV51.0
p3998
L7358L
sV296.04
p3999
L3467L
sV722.71
p4000
L325L
sV077.99
p4001
L4013L
sV752.11
p4002
L7576L
sV789.01
p4003
L195L
sV182.0
p4004
L2377L
sV372.39
p4005
L1888L
sV356.1
p4006
L4470L
sVE936.1
p4007
L3294L
sVV57.89
p4008
L967L
sV794.11
p4009
L5680L
sV363.41
p4010
L7751L
sV459.31
p4011
L2585L
sVE853.8
p4012
L5127L
sV371.60
p4013
L1740L
sV389.14
p4014
L3552L
sV995.65
p4015
L6932L
sV174.9
p4016
L178L
sV813.06
p4017
L3371L
sVV83.89
p4018
L6602L
sV759.81
p4019
L3199L
sV922.1
p4020
L808L
sV362.05
p4021
L1868L
sV793.6
p4022
L2155L
sV191.6
p4023
L2385L
sVV17.81
p4024
L3406L
sV718.82
p4025
L6311L
sV386.12
p4026
L3154L
sVV08
p4027
L913L
sVE968.8
p4028
L3232L
sV812.12
p4029
L7655L
sV438.13
p4030
L3194L
sV429.4
p4031
L1466L
sV307.40
p4032
L4096L
sVV44.3
p4033
L354L
sV695.14
p4034
L5781L
sV656.43
p4035
L6946L
sV370.40
p4036
L2989L
sV917.3
p4037
L1164L
sV125.1
p4038
L7592L
sVV55.2
p4039
L3723L
sV786.8
p4040
L2089L
sV438.83
p4041
L950L
sV364.77
p4042
L7028L
sV716.66
p4043
L3104L
sV315.1
p4044
L6483L
sV368.2
p4045
L3193L
sV429.0
p4046
L2020L
sV112.82
p4047
L2787L
sV910.6
p4048
L5346L
sV801.41
p4049
L7733L
sV348.39
p4050
L2059L
sV524.62
p4051
L2133L
sV737.39
p4052
L3599L
sV690.8
p4053
L2838L
sV840.7
p4054
L1708L
sVE029.2
p4055
L6508L
sV437.3
p4056
L1436L
sV811.03
p4057
L3138L
sV868.13
p4058
L7215L
sVV60.6
p4059
L3604L
sV747.81
p4060
L3932L
sV793.5
p4061
L337L
sV275.8
p4062
L7297L
sV312.34
p4063
L1973L
sV803.25
p4064
L6818L
sV784.0
p4065
L39L
sV041.49
p4066
L1104L
sV730.10
p4067
L3539L
sV847.9
p4068
L92L
sV820.22
p4069
L2621L
sV453.79
p4070
L4033L
sV040.89
p4071
L5418L
sV600.11
p4072
L4606L
sV414.07
p4073
L7431L
sV737.32
p4074
L6782L
sV404.93
p4075
L4199L
sV722.52
p4076
L389L
sVV13.66
p4077
L7513L
sVV25.12
p4078
L5287L
sV425.18
p4079
L6152L
sV627.9
p4080
L1568L
sV702.19
p4081
L1475L
sV967.0
p4082
L6090L
sV360.01
p4083
L7450L
sV584
p4084
L5005L
sV794.5
p4085
L168L
sV750.9
p4086
L3382L
sV365.62
p4087
L3111L
sV996.56
p4088
L5667L
sV557.1
p4089
L1432L
sV535.51
p4090
L1804L
sV213.2
p4091
L6358L
sV627.1
p4092
L2489L
sV212.3
p4093
L2827L
sV344.61
p4094
L2161L
sV491.9
p4095
L1264L
sV873.9
p4096
L7487L
sV757.1
p4097
L4882L
sV211.8
p4098
L6670L
sV596.3
p4099
L6563L
sV945.30
p4100
L4063L
sV373.00
p4101
L1669L
sVE958.9
p4102
L767L
sVV85.37
p4103
L2050L
sV440.20
p4104
L153L
sV530.12
p4105
L3397L
sV372.9
p4106
L7095L
sVV89.01
p4107
L3631L
sV342.81
p4108
L6699L
sV233.32
p4109
L2340L
sV719.60
p4110
L2018L
sVV63.8
p4111
L6071L
sV831.04
p4112
L5597L
sV307.44
p4113
L4799L
sV307.43
p4114
L7585L
sVE967.7
p4115
L5447L
sV556.2
p4116
L5091L
sV223.3
p4117
L6658L
sVV25.9
p4118
L3011L
sV945.20
p4119
L4503L
sV296.32
p4120
L248L
sVV04.8
p4121
L4718L
sV573.0
p4122
L7661L
sV565.1
p4123
L2693L
sV905.9
p4124
L3692L
sV915.8
p4125
L6501L
sV806.09
p4126
L5695L
sVV22.0
p4127
L3630L
sV442.1
p4128
L5568L
sV702.0
p4129
L560L
sVV85.21
p4130
L2671L
sV574.10
p4131
L1184L
sV368.00
p4132
L1085L
sVV07.52
p4133
L1988L
sV369.25
p4134
L3418L
sV487.0
p4135
L4145L
sV973.8
p4136
L7250L
sV369.0
p4137
L3713L
sV729.81
p4138
L314L
sV368.03
p4139
L2604L
sV924.21
p4140
L1525L
sV358.8
p4141
L7611L
sV967.8
p4142
L4723L
sVV72.42
p4143
L2737L
sV054.12
p4144
L7333L
sV852.41
p4145
L7276L
sV039.2
p4146
L6055L
sV530.86
p4147
L6770L
sV589.1
p4148
L2406L
sV284.2
p4149
L6225L
sV996.00
p4150
L3114L
sV273.9
p4151
L3505L
sV521.21
p4152
L5430L
sV982.0
p4153
L7007L
sVE930.5
p4154
L6291L
sV715.25
p4155
L5634L
sV384.25
p4156
L5461L
sV286.7
p4157
L465L
sV535.00
p4158
L928L
sV710.2
p4159
L611L
sV295.43
p4160
L5827L
sV225.4
p4161
L6359L
sVV12.02
p4162
L2181L
sV741.90
p4163
L4279L
sV919.4
p4164
L2127L
sV376.21
p4165
L6983L
sVE988.1
p4166
L3025L
sV492
p4167
L7278L
sVV61.20
p4168
L1372L
sV671.30
p4169
L6122L
sV527.3
p4170
L6915L
sV793.3
p4171
L1014L
sV362.60
p4172
L1630L
sV710.0
p4173
L1770L
sV719.11
p4174
L6471L
sV870.9
p4175
L7253L
sV887.6
p4176
L7495L
sV759.83
p4177
L2417L
sV728.11
p4178
L5173L
sV707.8
p4179
L1878L
sV574.40
p4180
L5265L
sVV79.0
p4181
L3594L
sV343.2
p4182
L3548L
sV079.3
p4183
L3353L
sV832.09
p4184
L6421L
sV192.0
p4185
L6733L
sV038.19
p4186
L966L
sVV85.41
p4187
L694L
sV366.02
p4188
L2687L
sV389.08
p4189
L5679L
sVE928.9
p4190
L308L
sV733.09
p4191
L1522L
sV296.5
p4192
L7125L
sV200.50
p4193
L5624L
sV280.1
p4194
L508L
sV923.9
p4195
L32L
sV477.0
p4196
L613L
sV314.1
p4197
L6386L
sV377.30
p4198
L4320L
sV944.07
p4199
L6802L
sV239.4
p4200
L5033L
sV711.40
p4201
L5895L
sVV15.83
p4202
L5939L
sV724.00
p4203
L1029L
sV713.5
p4204
L1449L
sV380.89
p4205
L6766L
sV525.10
p4206
L2581L
sV726.91
p4207
L553L
sV338.18
p4208
L1119L
sV718.35
p4209
L3115L
sV227.3
p4210
L1410L
sV958.3
p4211
L1830L
sV595.4
p4212
L6757L
sV799.52
p4213
L923L
sVV07.51
p4214
L5318L
sV821.11
p4215
L5505L
sV861.21
p4216
L1820L
sV405.99
p4217
L2431L
sV787.24
p4218
L1730L
sV719.83
p4219
L5761L
sV173.59
p4220
L5872L
sV386.2
p4221
L1980L
sV215.3
p4222
L4298L
sV727.82
p4223
L4879L
sV288.59
p4224
L3526L
sV140.0
p4225
L5924L
sV253.6
p4226
L993L
sV531.31
p4227
L6644L
sVV11.3
p4228
L76L
sV381.00
p4229
L2613L
sV207.80
p4230
L7229L
sV806.60
p4231
L6006L
sV078.5
p4232
L6047L
sV633.00
p4233
L7066L
sV296.52
p4234
L976L
sVV71.5
p4235
L2866L
sV972.2
p4236
L3499L
sV427.69
p4237
L746L
sVV61.42
p4238
L3129L
sV732.0
p4239
L6994L
sV201.93
p4240
L5483L
sV154.8
p4241
L4393L
sV369.08
p4242
L3522L
sV208.90
p4243
L2929L
sV845.12
p4244
L2023L
sV922.31
p4245
L1788L
sV795.52
p4246
L2288L
sV552.20
p4247
L3089L
sV707.02
p4248
L3807L
sV603.8
p4249
L6302L
sV815.00
p4250
L2084L
sV301.81
p4251
L2110L
sV786.00
p4252
L1443L
sVV73.98
p4253
L5297L
sVV15.52
p4254
L13L
sV417.9
p4255
L2296L
sV787.04
p4256
L5578L
sV719.64
p4257
L4492L
sV205.11
p4258
L6247L
sV959.3
p4259
L582L
sV695.10
p4260
L7622L
sV426.0
p4261
L1787L
sV997.09
p4262
L6807L
sV718.37
p4263
L5876L
sV648.10
p4264
L6692L
sV404.10
p4265
L2428L
sV874.00
p4266
L6565L
sV847.2
p4267
L161L
sV692.74
p4268
L2619L
sVE939.1
p4269
L6320L
sV753.29
p4270
L5900L
sV282.2
p4271
L6612L
sV331.7
p4272
L4567L
sVE854.3
p4273
L2145L
sV442.81
p4274
L7317L
sVV60.0
p4275
L788L
sV764.00
p4276
L7809L
sV892.1
p4277
L1530L
sV274.03
p4278
L5217L
sV278.3
p4279
L3876L
sV306.9
p4280
L4372L
sV378.52
p4281
L6394L
sV620.8
p4282
L2484L
sV730.27
p4283
L1169L
sV272.9
p4284
L2329L
sV681.1
p4285
L5000L
sV366.19
p4286
L295L
sV959.09
p4287
L243L
sV723.9
p4288
L436L
sV295.25
p4289
L615L
sV112.89
p4290
L3939L
sV368.02
p4291
L7528L
sVE930.4
p4292
L3105L
sV296.40
p4293
L2107L
sV620.7
p4294
L7102L
sV428.20
p4295
L2011L
sV268.1
p4296
L7239L
sV330.8
p4297
L1527L
sV903.01
p4298
L7280L
sV274.9
p4299
L451L
sV086.5
p4300
L5336L
sVV42.83
p4301
L5988L
sV054.79
p4302
L5019L
sV379.23
p4303
L1650L
sV256.9
p4304
L6495L
sV210.1
p4305
L4630L
sV796.3
p4306
L1474L
sV518.51
p4307
L845L
sV443.89
p4308
L351L
sV374.32
p4309
L4559L
sV295.01
p4310
L7111L
sV258.8
p4311
L6965L
sV610.4
p4312
L4872L
sV852.21
p4313
L3106L
sV540.9
p4314
L3981L
sVV02.61
p4315
L1832L
sV571.1
p4316
L1223L
sV301.0
p4317
L5255L
sV211.0
p4318
L4617L
sVV25.09
p4319
L2268L
sV008.63
p4320
L4119L
sVE855.6
p4321
L3201L
sV758.4
p4322
L7252L
sV295.75
p4323
L5672L
sV629.20
p4324
L5817L
sVV72.83
p4325
L146L
sV438.6
p4326
L4339L
sV552.00
p4327
L7172L
sV592.0
p4328
L448L
sVV17.7
p4329
L6526L
sVV58.30
p4330
L1401L
sV743.54
p4331
L7271L
sV383.33
p4332
L7357L
sV228.01
p4333
L3023L
sV569.84
p4334
L2934L
sV722.73
p4335
L2179L
sV912.8
p4336
L2016L
sV537.82
p4337
L3337L
sV619.8
p4338
L6533L
sV3159
p4339
L6654L
sV527.6
p4340
L7426L
sV847.0
p4341
L626L
sV655.13
p4342
L4922L
sV441.02
p4343
L6904L
sV648.24
p4344
L5202L
sV908.0
p4345
L5822L
sV339.22
p4346
L7802L
sV516.8
p4347
L1136L
sV210.7
p4348
L5400L
sV941.27
p4349
L2441L
sV597.80
p4350
L4201L
sV531.30
p4351
L4463L
sV709.01
p4352
L3067L
sV805.01
p4353
L6132L
sV941.24
p4354
L7679L
sV880.10
p4355
L7281L
sV863.89
p4356
L4257L
sV362.51
p4357
L864L
sV916.2
p4358
L871L
sV153.6
p4359
L4561L
sV854.02
p4360
L6922L
sV655.73
p4361
L3628L
sV304.92
p4362
L7173L
sV369.03
p4363
L7315L
sV362.55
p4364
L2963L
sV370.34
p4365
L3722L
sV599.6
p4366
L5835L
sV252.00
p4367
L1766L
sV342.90
p4368
L869L
sV173.30
p4369
L3637L
sV728.81
p4370
L6209L
sV380.00
p4371
L3021L
sV097.0
p4372
L7213L
sV140.1
p4373
L3957L
sV053.8
p4374
L5116L
sV422.92
p4375
L7365L
sV454.1
p4376
L1529L
sV718.75
p4377
L6211L
sV527.4
p4378
L6711L
sV305.50
p4379
L806L
sV994.7
p4380
L3785L
sV053.20
p4381
L5890L
sVV11.9
p4382
L4476L
sV365.10
p4383
L1548L
sV446.4
p4384
L5565L
sVL00
p4385
L6933L
sVV82.5
p4386
L6107L
sV948.00
p4387
L462L
sVV45.77
p4388
L3343L
sVE824.1
p4389
L3755L
sV286.59
p4390
L2597L
sV924.3
p4391
L1966L
sV146.1
p4392
L6464L
sV369.67
p4393
L7380L
sV295.05
p4394
L6993L
sVV58.6
p4395
L6028L
sV404.02
p4396
L4621L
sV968.0
p4397
L4711L
sV223.2
p4398
L7248L
sV232.8
p4399
L7645L
sV382.02
p4400
L7372L
sV162.4
p4401
L7523L
sV795.05
p4402
L2345L
sV271.4
p4403
L4962L
sV716.11
p4404
L3913L
sV996.68
p4405
L3905L
sV851.80
p4406
L4904L
sV302.9
p4407
L1441L
sV884.0
p4408
L4301L
sV045.90
p4409
L3144L
sV521.31
p4410
L6990L
sV369.20
p4411
L4385L
sVE888
p4412
L1779L
sV209.55
p4413
L3728L
sV363.51
p4414
L1579L
sV717.83
p4415
L3365L
sV389.16
p4416
L2610L
sVV10.06
p4417
L381L
sV303.9
p4418
L7117L
sV784.44
p4419
L7321L
sV835.00
p4420
L4105L
sV525.11
p4421
L3303L
sV908.9
p4422
L47L
sV819.0
p4423
L2555L
sV253.8
p4424
L2932L
sV282.40
p4425
L7016L
sVV49.63
p4426
L4364L
sV360.63
p4427
L7029L
sV681.02
p4428
L4322L
sV369.64
p4429
L5616L
sV790.93
p4430
L1942L
sVE920.9
p4431
L2169L
sV804.00
p4432
L5036L
sV344.03
p4433
L3592L
sV453.84
p4434
L5523L
sV730.17
p4435
L3102L
sV396.3
p4436
L1604L
sV374.41
p4437
L6862L
sV523.00
p4438
L4341L
sV788.1
p4439
L540L
sV364.00
p4440
L1533L
sV728.7
p4441
L2061L
sVV85.42
p4442
L969L
sV377.15
p4443
L5357L
sV300.22
p4444
L3465L
sV999.31
p4445
L1872L
sV794.8
p4446
L885L
sV386.31
p4447
L7226L
sV038.8
p4448
L2475L
sV530.20
p4449
L2643L
sV823.22
p4450
L267L
sV279.00
p4451
L4689L
sV963.1
p4452
L6334L
sV842.01
p4453
L5751L
sV997.32
p4454
L1732L
sV360.41
p4455
L2192L
sV405.11
p4456
L3656L
sV824.7
p4457
L5952L
sV621.35
p4458
L7311L
sV756.53
p4459
L4218L
sV173.2
p4460
L5678L
sV799.51
p4461
L1948L
sV574.20
p4462
L490L
sV784.91
p4463
L1545L
sV789.59
p4464
L461L
sV362.63
p4465
L3663L
sV737.21
p4466
L6958L
sV978.3
p4467
L2956L
sV287.2
p4468
L2944L
sV363.21
p4469
L4484L
sV576.2
p4470
L2609L
sV305.21
p4471
L3782L
sV275.02
p4472
L7014L
sV451.83
p4473
L5266L
sV401.1
p4474
L157L
sV886.1
p4475
L6688L
sV788.29
p4476
L3413L
sV812.40
p4477
L1623L
sVV01.2
p4478
L3145L
sV307.41
p4479
L1570L
sVV74.1
p4480
L1689L
sV112.4
p4481
L4034L
sV380.14
p4482
L5865L
sV779.1
p4483
L6228L
sV440.22
p4484
L160L
sV289.2
p4485
L1690L
sV584.9
p4486
L440L
sV783.6
p4487
L7078L
sV611.81
p4488
L7631L
sV614.4
p4489
L341L
sV550.92
p4490
L3790L
sV805.3
p4491
L6890L
sV908.3
p4492
L4247L
sV751.60
p4493
L4598L
sV748.5
p4494
L6829L
sV838.04
p4495
L3916L
sV618.82
p4496
L353L
sV333.5
p4497
L2411L
sVV57.1
p4498
L306L
sV780.53
p4499
L1791L
sV872.01
p4500
L5674L
sV496.
p4501
L6059L
sVV28.9
p4502
L3253L
sV362.31
p4503
L6372L
sV327.01
p4504
L2534L
sV671.33
p4505
L7734L
sV453.9
p4506
L2039L
sV521.08
p4507
L4249L
sV958.4
p4508
L4253L
sV806.04
p4509
L6306L
sV214.9
p4510
L915L
sV250.90
p4511
L906L
sV801.21
p4512
L5869L
sV529.5
p4513
L7618L
sV300.09
p4514
L2132L
sV472.0
p4515
L1234L
sV041.41
p4516
L6213L
sV537.4
p4517
L5543L
sV802.8
p4518
L1428L
sV433.21
p4519
L5534L
sV974.3
p4520
L2253L
sV372.72
p4521
L1614L
sVV54.17
p4522
L3373L
sV916.0
p4523
L73L
sV011.80
p4524
L7686L
sV453.42
p4525
L368L
sV054.42
p4526
L555L
sV706.8
p4527
L880L
sV611.89
p4528
L184L
sV727.00
p4529
L1325L
sV388.12
p4530
L5307L
sV306.8
p4531
L3557L
sV516.69
p4532
L6210L
sVV12.79
p4533
L1086L
sV446.7
p4534
L3984L
sVV18.0
p4535
L1504L
sV551.8
p4536
L6827L
sV618.9
p4537
L2529L
sV680.5
p4538
L2509L
sV338.8
p4539
L7525L
sVV10.89
p4540
L3200L
sV066.3
p4541
L3054L
sV742.2
p4542
L4108L
sV339.42
p4543
L2468L
sVE939.3
p4544
L4810L
sV794.31
p4545
L399L
sV726.10
p4546
L245L
sV756.3
p4547
L6085L
sV364.72
p4548
L7128L
sVE909.1
p4549
L2306L
sV808.49
p4550
L1805L
sV864.01
p4551
L3568L
sV253.9
p4552
L5621L
sV911.4
p4553
L5491L
sVV23.87
p4554
L4912L
sV362.06
p4555
L1580L
sV212.7
p4556
L1534L
sVV45.01
p4557
L940L
sV381.01
p4558
L3032L
sVV78.8
p4559
L3944L
sVV07.39
p4560
L5590L
sVE866.4
p4561
L7484L
sV820.13
p4562
L7516L
sV315.02
p4563
L4168L
sV344.02
p4564
L6643L
sV188.5
p4565
L5241L
sV239.6
p4566
L3383L
sV747.31
p4567
L7099L
sVV85.33
p4568
L3429L
sV244.9
p4569
L392L
sV716.27
p4570
L5011L
sV033.0
p4571
L6880L
sVE929.2
p4572
L4809L
sV553.1
p4573
L377L
sV567.31
p4574
L3757L
sV282.0
p4575
L7540L
sV162.3
p4576
L1402L
sV304.63
p4577
L4229L
sV264.9
p4578
L7773L
sVE013.0
p4579
L4205L
sV334.9
p4580
L7180L
sV258.1
p4581
L6726L
sVV54.13
p4582
L1175L
sVE850.2
p4583
L4824L
sV211.2
p4584
L4213L
sV525.13
p4585
L3874L
sV345.9
p4586
L5656L
sV995.93
p4587
L2251L
sVE969
p4588
L5806L
sV692.3
p4589
L5898L
sV623.8
p4590
L2439L
sV723.4
p4591
L1677L
sV530.3
p4592
L1847L
sVV54.1
p4593
L3911L
sV710.9
p4594
L3077L
sV756.50
p4595
L6391L
sV305.52
p4596
L5945L
sV355.1
p4597
L5188L
sV789.9
p4598
L1149L
sV033.9
p4599
L4356L
sVV42.1
p4600
L3559L
sV928.01
p4601
L7242L
sV712.26
p4602
L6730L
sV346.90
p4603
L796L
sV447.1
p4604
L1871L
sV362.81
p4605
L1649L
sV379.99
p4606
L1025L
sV791.9
p4607
L838L
sVE013.5
p4608
L6136L
sV733.92
p4609
L3980L
sV110.9
p4610
L2976L
sVE850.4
p4611
L6367L
sV215.2
p4612
L7197L
sVV49.0
p4613
L4098L
sV556.8
p4614
L6615L
sV943.25
p4615
L6365L
sV535.41
p4616
L2940L
sV555.1
p4617
L3490L
sV244.8
p4618
L837L
sV338.22
p4619
L5813L
sV518.82
p4620
L1875L
sV342.11
p4621
L4698L
sV238.71
p4622
L812L
sV782.4
p4623
L1425L
sV041.05
p4624
L6012L
sV823.81
p4625
L2766L
sV295.90
p4626
L602L
sVV45.81
p4627
L1216L
sV426.53
p4628
L1536L
sV353.0
p4629
L3095L
sV414.02
p4630
L2038L
sV836.54
p4631
L7116L
sV388.72
p4632
L4310L
sV556.1
p4633
L5587L
sVE920.5
p4634
L5275L
sV581.1
p4635
L4299L
sV532.90
p4636
L1307L
sV385.00
p4637
L3640L
sV596.4
p4638
L2965L
sV518.0
p4639
L19L
sV530.6
p4640
L2165L
sV403.10
p4641
L1069L
sV275.1
p4642
L5391L
sV277.5
p4643
L1714L
sV362.54
p4644
L166L
sV170.6
p4645
L6878L
sV596.8
p4646
L3168L
sV656.71
p4647
L7069L
sVE876.9
p4648
L6509L
sV655.81
p4649
L7614L
sV569.2
p4650
L5267L
sV878.5
p4651
L6449L
sV905.1
p4652
L1513L
sV728.82
p4653
L4354L
sV287.0
p4654
L4217L
sV284.89
p4655
L5598L
sV760.71
p4656
L2269L
sV501
p4657
L4153L
sV205.00
p4658
L2217L
sV903.8
p4659
L7279L
sV730.24
p4660
L4504L
sV844.0
p4661
L2419L
sV353.9
p4662
L6399L
sV745.69
p4663
L7442L
sV370.35
p4664
L5973L
sV323.02
p4665
L6540L
sV428.0
p4666
L716L
sVV54.27
p4667
L1685L
sV371.62
p4668
L7165L
sV471.0
p4669
L1984L
sV750.6
p4670
L5366L
sVE007.6
p4671
L6784L
sV434.91
p4672
L956L
sV717.6
p4673
L3103L
sV585.2
p4674
L548L
sV212.1
p4675
L5618L
sV528.00
p4676
L1922L
sV371.43
p4677
L4337L
sV616.89
p4678
L4479L
sV428.31
p4679
L2186L
sV695.59
p4680
L7345L
sV715.98
p4681
L650L
sV723.0
p4682
L1192L
sV717.5
p4683
L4527L
sV536.41
p4684
L4380L
sV998.89
p4685
L1645L
sV995.63
p4686
L6503L
sV831.02
p4687
L6093L
sVE933.1
p4688
L2398L
sV377.11
p4689
L7474L
sV327.00
p4690
L1567L
sV726.62
p4691
L5880L
sVV87.46
p4692
L3558L
sV730.97
p4693
L3541L
sV374.04
p4694
L7485L
sV621.8
p4695
L1781L
sV852.00
p4696
L5184L
sV760.2
p4697
L7808L
sV388.8
p4698
L3868L
sV307.9
p4699
L809L
sV618.3
p4700
L1949L
sV255.10
p4701
L5246L
sV385.01
p4702
L6901L
sV111.1
p4703
L6882L
sV370.00
p4704
L5114L
sV614.5
p4705
L7639L
sV719.87
p4706
L3596L
sVE937.0
p4707
L7719L
sV372.53
p4708
L4831L
sVV45.74
p4709
L7129L
sV574.01
p4710
L4399L
sV558.1
p4711
L5379L
sVE016.9
p4712
L6099L
sV239.0
p4713
L1537L
sV150.9
p4714
L3476L
sVV15.51
p4715
L189L
sV218.9
p4716
L1605L
sVE849.3
p4717
L1619L
sV478.74
p4718
L1946L
sV369.01
p4719
L5304L
sV456.21
p4720
L1622L
sV362.30
p4721
L2223L
sV833.04
p4722
L6230L
sV361.00
p4723
L3390L
sV733.94
p4724
L4869L
sV270.4
p4725
L3161L
sV440.21
p4726
L1426L
sV032.89
p4727
L7175L
sV813.05
p4728
L2352L
sV787.91
p4729
L201L
sV780.02
p4730
L769L
sV139.0
p4731
L7747L
sV288.2
p4732
L3942L
sV369.9
p4733
L2334L
sV303.02
p4734
L1585L
sV456.4
p4735
L3528L
sV770.5
p4736
L4150L
sV376.50
p4737
L4014L
sV655.03
p4738
L4917L
sV786.1
p4739
L2727L
sV237.70
p4740
L3176L
sV701.8
p4741
L3059L
sV745.2
p4742
L3561L
sV120.0
p4743
L6601L
sV906.9
p4744
L6489L
sV151.4
p4745
L5897L
sV295.73
p4746
L3671L
sV222.4
p4747
L7722L
sV863.90
p4748
L6058L
sV364.54
p4749
L1956L
sV250
p4750
L7551L
sV437.0
p4751
L2054L
sV784.1
p4752
L1771L
sV298.1
p4753
L3047L
sV939.0
p4754
L5042L
sVE013.9
p4755
L3937L
sV280.8
p4756
L4331L
sVV77.6
p4757
L4918L
sV250.30
p4758
L481L
sV110.0
p4759
L4390L
sV483.8
p4760
L5172L
sV285.21
p4761
L588L
sV599.89
p4762
L4574L
sVV58.74
p4763
L5147L
sV924.01
p4764
L2283L
sV618.04
p4765
L659L
sV049.8
p4766
L6543L
sV138
p4767
L3143L
sVV14.8
p4768
L824L
sV337.1
p4769
L1683L
sV295.00
p4770
L2138L
sV587
p4771
L566L
sVV25.40
p4772
L2265L
sVE945.2
p4773
L5160L
sV381.04
p4774
L6490L
sV945.16
p4775
L6343L
sV711.05
p4776
L3995L
sV784.99
p4777
L1737L
sV032.2
p4778
L7598L
sV945.06
p4779
L6868L
sV238.77
p4780
L5987L
sV942.00
p4781
L5108L
sV354.4
p4782
L3853L
sV765.1
p4783
L6396L
sV510.0
p4784
L4074L
sV380.22
p4785
L1558L
sV642.00
p4786
L5917L
sVE905.1
p4787
L5863L
sVV12.2
p4788
L6141L
sV302.50
p4789
L6629L
sV920
p4790
L622L
sVV43.65
p4791
L693L
sV713.0
p4792
L7034L
sV250.11
p4793
L4124L
sV596.54
p4794
L961L
sV484.8
p4795
L4312L
sV281.0
p4796
L3005L
sV237.5
p4797
L1554L
sV825.25
p4798
L309L
sV315.8
p4799
L1035L
sVV85.38
p4800
L1276L
sV999.80
p4801
L4789L
sV209.25
p4802
L6697L
sV866.02
p4803
L7378L
sV471.8
p4804
L6034L
sV281.4
p4805
L5652L
sV305.43
p4806
L7075L
sV370.63
p4807
L5591L
sVE879.1
p4808
L3074L
sV296.02
p4809
L3364L
sV200.48
p4810
L5666L
sV897.7
p4811
L1910L
sV754.2
p4812
L3951L
sV190.3
p4813
L7535L
sVV01.6
p4814
L3512L
sV379.21
p4815
L5L
sVE850.0
p4816
L2281L
sV617.4
p4817
L7149L
sV749.21
p4818
L7613L
sV041.4
p4819
L3601L
sV560.39
p4820
L3339L
sV751.0
p4821
L6072L
sV729.4
p4822
L2757L
sV478.6
p4823
L2825L
sVE813.2
p4824
L5958L
sV774.6
p4825
L7307L
sV719.85
p4826
L3585L
sV320.2
p4827
L4659L
sV715
p4828
L1774L
sV011.92
p4829
L6368L
sV375.89
p4830
L7761L
sVV40.0
p4831
L1056L
sV715.89
p4832
L578L
sV423.1
p4833
L4609L
sVE935.6
p4834
L6908L
sV580.9
p4835
L2320L
sV004.9
p4836
L5787L
sV255.0
p4837
L4367L
sV199.2
p4838
L5990L
sV464.00
p4839
L1421L
sV860.0
p4840
L1821L
sV242.81
p4841
L6150L
sV726.11
p4842
L1406L
sV379.31
p4843
L4674L
sV259.4
p4844
L6200L
sV998.51
p4845
L5081L
sV788.63
p4846
L1542L
sV787.1
p4847
L637L
sV433.80
p4848
L1914L
sV623.9
p4849
L4494L
sV724.5
p4850
L100L
sV788.42
p4851
L1300L
sV753.0
p4852
L456L
sV611.1
p4853
L182L
sV832.01
p4854
L6420L
sV525.65
p4855
L7228L
sV315.9
p4856
L1054L
sV345.10
p4857
L285L
sV447.4
p4858
L2805L
sV295.92
p4859
L3483L
sV621.9
p4860
L4193L
sV711.06
p4861
L1106L
sV716.26
p4862
L5515L
sV375.41
p4863
L6789L
sV991.9
p4864
L5733L
sV235.9
p4865
L7131L
sVV15.04
p4866
L1257L
sV610.2
p4867
L4870L
sV537.0
p4868
L3861L
sV864.14
p4869
L4254L
sV275.41
p4870
L193L
sV598.8
p4871
L1317L
sV821.21
p4872
L1345L
sV360.43
p4873
L7583L
sV840.4
p4874
L606L
sV269.2
p4875
L2317L
sV462
p4876
L747L
sV711.97
p4877
L7386L
sV491.20
p4878
L144L
sV111.9
p4879
L1455L
sV617.8
p4880
L7150L
sV338.4
p4881
L563L
sVV49.3
p4882
L6279L
sV942.32
p4883
L7476L
sV866.00
p4884
L2078L
sV326
p4885
L5934L
sV564.5
p4886
L511L
sV906.4
p4887
L6687L
sV693.0
p4888
L1457L
sVV55.5
p4889
L2256L
sV608.87
p4890
L6845L
sVV53.32
p4891
L1658L
sV292.12
p4892
L3451L
sV302.75
p4893
L7413L
sV805.4
p4894
L1344L
sV362.10
p4895
L2450L
sV372.00
p4896
L1387L
sV438.0
p4897
L74L
sV756.0
p4898
L936L
sV738.8
p4899
L5084L
sV253.7
p4900
L2404L
sV296.12
p4901
L6191L
sV959.8
p4902
L2556L
sV374.13
p4903
L4065L
sV944.00
p4904
L2346L
sV780.64
p4905
L1111L
sV873.64
p4906
L5271L
sV041.86
p4907
L576L
sV296.26
p4908
L5111L
sVE880.9
p4909
L1290L
sV331.0
p4910
L938L
sV611.72
p4911
L678L
sVV61.41
p4912
L5784L
sV301.12
p4913
L4657L
sV747.0
p4914
L7724L
sV389.17
p4915
L1721L
sV705.1
p4916
L3516L
sV839.01
p4917
L7107L
sV738.10
p4918
L5055L
sV615.9
p4919
L2624L
sV339.10
p4920
L3582L
sV854.01
p4921
L5507L
sVV42.7
p4922
L3178L
sV224.9
p4923
L5979L
sV535.31
p4924
L2557L
sV751.4
p4925
L6060L
sV568.82
p4926
L7293L
sV035
p4927
L6139L
sV727.51
p4928
L1122L
sV653.13
p4929
L2750L
sV731.0
p4930
L3933L
sV142.0
p4931
L4785L
sV998.30
p4932
L1095L
sV305.00
p4933
L45L
sV923.03
p4934
L23L
sVE917.3
p4935
L1921L
sV259.1
p4936
L5137L
sV429.79
p4937
L4338L
sV383.02
p4938
L6723L
sVV12.51
p4939
L934L
sV054.19
p4940
L6284L
sV309.83
p4941
L3510L
sV367.21
p4942
L601L
sV334.3
p4943
L20L
sV722.4
p4944
L708L
sVV14.9
p4945
L6617L
sV214.3
p4946
L198L
sV644.03
p4947
L3258L
sV715.21
p4948
L6423L
sV943.21
p4949
L5782L
sV595.82
p4950
L5915L
sVV12.53
p4951
L5061L
sV287.30
p4952
L1423L
sV239.9
p4953
L5117L
sV365.74
p4954
L1267L
sV600.3
p4955
L6676L
sVE934.7
p4956
L7164L
sV805.08
p4957
L6364L
sV935.2
p4958
L4017L
sV618.02
p4959
L5615L
sV813.08
p4960
L7453L
sVV69.9
p4961
L3497L
sVV82.81
p4962
L1031L
sV385.30
p4963
L3024L
sVV72.11
p4964
L7330L
sV722.92
p4965
L3192L
sV827.0
p4966
L313L
sV945.09
p4967
L4580L
sVE007.3
p4968
L6785L
sVV26.51
p4969
L1244L
sV041.81
p4970
L5930L
sV191.2
p4971
L7318L
sV453.87
p4972
L4352L
sV729.6
p4973
L579L
sV691.8
p4974
L599L
sV895.1
p4975
L5119L
sV357.3
p4976
L5991L
sV646.83
p4977
L4507L
sV292.80
p4978
L7524L
sV361.2
p4979
L2493L
sV825.29
p4980
L629L
sVE848
p4981
L7620L
sV658.21
p4982
L6431L
sV873.63
p4983
L3228L
sV376.22
p4984
L5520L
sV577.2
p4985
L1229L
sV451.2
p4986
L2371L
sV655.43
p4987
L7323L
sV305.1
p4988
L129L
sV739.8
p4989
L6300L
sVE957.9
p4990
L5394L
sV854.09
p4991
L6988L
sV914.0
p4992
L793L
sV718.47
p4993
L2607L
sV952.3
p4994
L4967L
sV215.0
p4995
L250L
sVV13.4
p4996
L2068L
sVE931.0
p4997
L6317L
sV585.3
p4998
L489L
sV975.0
p4999
L6328L
sV294.11
p5000
L881L
sV992.1
p5001
L5466L
sV236.91
p5002
L2644L
sV333.93
p5003
L6465L
sVV53.09
p5004
L5547L
sV246.8
p5005
L3694L
sV900.03
p5006
L7698L
sV746.3
p5007
L5495L
sV860.4
p5008
L1822L
sV373.11
p5009
L3068L
sV287.49
p5010
L394L
sVV17.6
p5011
L6773L
sV361.02
p5012
L4623L
sV114.5
p5013
L7049L
sV719.46
p5014
L70L
sV865.00
p5015
L4261L
sV682.1
p5016
L2408L
sV844.9
p5017
L1510L
sV362.40
p5018
L4624L
sV362.32
p5019
L1549L
sV790.2
p5020
L5996L
sV718.92
p5021
L5422L
sV309.0
p5022
L1546L
sVE947.8
p5023
L4808L
sV715.92
p5024
L1987L
sV256.39
p5025
L3921L
sV235.1
p5026
L7081L
sV892.2
p5027
L3545L
sV038.9
p5028
L430L
sV188.9
p5029
L2175L
sV221.0
p5030
L7470L
sV410.52
p5031
L3151L
sV379.52
p5032
L7646L
sV757.39
p5033
L1296L
sV425.5
p5034
L2698L
sV994.6
p5035
L6708L
sVE929.3
p5036
L534L
sVE980.9
p5037
L2795L
sV595.9
p5038
L1420L
sV173.80
p5039
L6570L
sV281.1
p5040
L374L
sV433.90
p5041
L3553L
sV173.39
p5042
L3845L
sV611.82
p5043
L4591L
sV426.9
p5044
L901L
sV794.39
p5045
L1809L
sVV15.06
p5046
L3507L
sVV50.9
p5047
L3904L
sV290.40
p5048
L1516L
sV791.6
p5049
L4960L
sVV07.2
p5050
L4883L
sV619.2
p5051
L7148L
sV575.5
p5052
L5049L
sV531.90
p5053
L2569L
sV170.4
p5054
L4981L
sV410.92
p5055
L2952L
sV361.10
p5056
L3051L
sV998.4
p5057
L4263L
sV232.4
p5058
L7745L
sV310.0
p5059
L1375L
sV276.3
p5060
L1394L
sV414.11
p5061
L1741L
sV250.81
p5062
L3270L
sV665.51
p5063
L7472L
sV369.61
p5064
L6079L
sV366.01
p5065
L4677L
sV171.40
p5066
L7092L
sV866.01
p5067
L4160L
sV727.9
p5068
L3770L
sV842.19
p5069
L5187L
sVE870.8
p5070
L3928L
sV514
p5071
L432L
sVV13.7
p5072
L1042L
sV531.70
p5073
L3222L
sVE884.4
p5074
L1793L
sV327.32
p5075
L3839L
sV295.14
p5076
L7335L
sV550.11
p5077
L4414L
sV428.43
p5078
L1329L
sV533.70
p5079
L4587L
sV263.8
p5080
L925L
sVE963
p5081
L6974L
sV249.50
p5082
L7270L
sV512.89
p5083
L1818L
sV753.21
p5084
L7269L
sV200.18
p5085
L5819L
sV942.02
p5086
L7480L
sV191.3
p5087
L7363L
sV949.0
p5088
L473L
sV712.35
p5089
L6016L
sV364.05
p5090
L3213L
sV780.1
p5091
L810L
sVV12.50
p5092
L1885L
sV525.41
p5093
L5508L
sVE924.0
p5094
L3817L
sV738.19
p5095
L6453L
sV744.03
p5096
L4727L
sVV13.3
p5097
L3769L
sV726.70
p5098
L1454L
sV256.2
p5099
L6534L
sV821.23
p5100
L2703L
sV379.25
p5101
L3334L
sVV49.85
p5102
L5327L
sV491.1
p5103
L2997L
sV300.19
p5104
L4349L
sV437.9
p5105
L2873L
sV304.02
p5106
L4024L
sV451.9
p5107
L1405L
sV388.2
p5108
L2449L
sV296.11
p5109
L7741L
sV913.0
p5110
L1968L
sV823.42
p5111
L7737L
sV200.10
p5112
L6169L
sV705.0
p5113
L6100L
sV752.89
p5114
L7537L
sV292.11
p5115
L6294L
sV995.90
p5116
L433L
sV216.2
p5117
L6223L
sV996.51
p5118
L3498L
sV327.02
p5119
L1203L
sV289.84
p5120
L2955L
sV363.15
p5121
L7497L
sV478.0
p5122
L2726L
sV304.00
p5123
L1163L
sVV62.0
p5124
L3624L
sV843.1
p5125
L6682L
sVE934.6
p5126
L3569L
sVV87.09
p5127
L2676L
sV719.55
p5128
L1273L
sVV62.6
p5129
L3556L
sV350.8
p5130
L6566L
sV533.10
p5131
L6119L
sV366.04
p5132
L3798L
sV366.41
p5133
L3844L
sV936
p5134
L525L
sV525.8
p5135
L3699L
sV579.9
p5136
L2002L
sV282.1
p5137
L5718L
sV904.0
p5138
L2124L
sVV72.2
p5139
L31L
sV572.4
p5140
L1592L
sV374.31
p5141
L3441L
sV927.3
p5142
L5024L
sV962.3
p5143
L480L
sV735.0
p5144
L171L
sV781.8
p5145
L2042L
sV972.8
p5146
L3992L
sV383.30
p5147
L6674L
sV736.29
p5148
L4387L
sV707.01
p5149
L3164L
sV365.72
p5150
L1209L
sV827.1
p5151
L6984L
sV594.9
p5152
L2262L
sV996.70
p5153
L6161L
sV389.9
p5154
L1033L
sV952.10
p5155
L5644L
sV755.30
p5156
L7506L
sV282.44
p5157
L7160L
sV319.01
p5158
L3203L
sV820.32
p5159
L6405L
sV716.20
p5160
L5365L
sV516.3
p5161
L4550L
sV323.82
p5162
L5235L
sV921.0
p5163
L3867L
sV429.2
p5164
L543L
sV031.2
p5165
L6944L
sV362.42
p5166
L6865L
sV375.53
p5167
L6814L
sV579.8
p5168
L2008L
sV812.42
p5169
L6619L
sV478.29
p5170
L2824L
sV369.3
p5171
L3454L
sV784.92
p5172
L2204L
sV277.87
p5173
L5213L
sV944.30
p5174
L7009L
sVV30.00
p5175
L5199L
sV886.0
p5176
L400L
sV389.8
p5177
L3157L
sV333.81
p5178
L3555L
sVV12.5
p5179
L3711L
sV841.0
p5180
L1651L
sV341.9
p5181
L2969L
sV626.7
p5182
L6084L
sV361.9
p5183
L2487L
sV444.22
p5184
L947L
sV784.60
p5185
L2706L
sVV54.09
p5186
L998L
sV942.12
p5187
L3819L
sV649.51
p5188
L4926L
sV616.0
p5189
L4292L
sVE959
p5190
L7575L
sV780.65
p5191
L3479L
sV443.1
p5192
L2970L
sV053.14
p5193
L6539L
sV277.39
p5194
L4429L
sV038.2
p5195
L3859L
sV716.96
p5196
L34L
sV793.0
p5197
L1573L
sVE931.4
p5198
L2836L
sV722.83
p5199
L1348L
sV625.9
p5200
L900L
sV780.79
p5201
L90L
sV347.10
p5202
L6822L
sV244.1
p5203
L4029L
sV362.74
p5204
L3485L
sV426.3
p5205
L1161L
sV200.31
p5206
L1850L
sV230.4
p5207
L6151L
sV569.5
p5208
L3613L
sVE816.7
p5209
L6129L
sVV46.8
p5210
L4332L
sV996.41
p5211
L1112L
sV658.41
p5212
L6433L
sV519.02
p5213
L2883L
sV346.91
p5214
L2466L
sV718.56
p5215
L5550L
sV930.0
p5216
L3667L
sV839.9
p5217
L3142L
sVV43.82
p5218
L2241L
sV362.9
p5219
L7244L
sV410.02
p5220
L5983L
sV388.43
p5221
L4954L
sVV43.22
p5222
L6981L
sV736.81
p5223
L1417L
sV346.23
p5224
L5715L
sV150.0
p5225
L3775L
sV337.09
p5226
L999L
sV812.43
p5227
L3455L
sV729.90
p5228
L1489L
sV674.10
p5229
L3762L
sV313.3
p5230
L4377L
sV461.3
p5231
L5388L
sV919.6
p5232
L751L
sV918.0
p5233
L4460L
sV296.60
p5234
L2103L
sV284.12
p5235
L6278L
sV304.73
p5236
L4228L
sV296.30
p5237
L696L
sV444.89
p5238
L6182L
sV282.46
p5239
L7012L
sV878.0
p5240
L5763L
sVV82.89
p5241
L1731L
sV840.0
p5242
L6427L
sVV89.09
p5243
L7804L
sV692.71
p5244
L5321L
sV335.21
p5245
L4077L
sVE901.9
p5246
L4777L
sVV84.02
p5247
L4595L
sV637.30
p5248
L6938L
sV130.2
p5249
L4743L
sV072.9
p5250
L6755L
sV414.12
p5251
L7529L
sV270.7
p5252
L3610L
sV269.9
p5253
L2009L
sV726.19
p5254
L2065L
sV825.30
p5255
L5300L
sV369.76
p5256
L7198L
sVE917.0
p5257
L4935L
sV372.43
p5258
L6677L
sV339.12
p5259
L3377L
sV524.69
p5260
L2615L
sV786.4
p5261
L4200L
sV512.8
p5262
L4970L
sV751.62
p5263
L6499L
sV952.15
p5264
L4793L
sV425.0
p5265
L2375L
sV719.89
p5266
L3063L
sV707.21
p5267
L1927L
sV900.02
p5268
L7697L
sVE917.4
p5269
L792L
sV518.53
p5270
L6008L
sV277.0
p5271
L4652L
sV727.68
p5272
L3698L
sV571.9
p5273
L1179L
sV299.90
p5274
L6641L
sVV76.0
p5275
L6065L
sV453.6
p5276
L3733L
sV290.41
p5277
L4649L
sV402.01
p5278
L3682L
sV782.9
p5279
L514L
sV302.85
p5280
L5027L
sVV43.69
p5281
L6655L
sV585.6
p5282
L499L
sV905.4
p5283
L3689L
sV466.0
p5284
L209L
sV574.71
p5285
L5133L
sV812.09
p5286
L2537L
sV252.08
p5287
L1807L
sV209.29
p5288
L2853L
sV781.1
p5289
L2646L
sV295.30
p5290
L1215L
sV996.72
p5291
L853L
sVV10.00
p5292
L5487L
sV482.0
p5293
L4128L
sV275.3
p5294
L453L
sV297.2
p5295
L6187L
sV359.81
p5296
L968L
sV367.53
p5297
L5273L
sVV01.9
p5298
L6180L
sV171.5
p5299
L6173L
sVE905.5
p5300
L6875L
sV802.20
p5301
L3878L
sV521.06
p5302
L6665L
sV170.0
p5303
L7101L
sV202.81
p5304
L1836L
sV3439
p5305
L6040L
sV172.2
p5306
L7192L
sV732.1
p5307
L6998L
sV300.4
p5308
L206L
sV852.46
p5309
L7433L
sV368.12
p5310
L6005L
sV756.15
p5311
L2650L
sV919.0
p5312
L922L
sV250.91
p5313
L3424L
sV528.4
p5314
L6110L
sV681.11
p5315
L559L
sV789.44
p5316
L3492L
sV568.9
p5317
L7744L
sV577.1
p5318
L574L
sV941.23
p5319
L6847L
sV593.3
p5320
L3701L
sV478.20
p5321
L2882L
sV335.20
p5322
L4079L
sV637.11
p5323
L7302L
sV959.6
p5324
L995L
sV747.20
p5325
L3087L
sV806.00
p5326
L3721L
sV153.0
p5327
L5488L
sV795.39
p5328
L4946L
sV567.81
p5329
L3903L
sV923.3
p5330
L3069L
sV097.9
p5331
L4048L
sV404.03
p5332
L3793L
sV349.89
p5333
L1826L
sV618.81
p5334
L5588L
sV799.
p5335
L3646L
sV453.50
p5336
L2829L
sV362.14
p5337
L5854L
sV755.67
p5338
L1039L
sV521.89
p5339
L5093L
sV474.10
p5340
L2479L
sV850.12
p5341
L6549L
sVV88.21
p5342
L3835L
sVV76.2
p5343
L686L
sVV60.4
p5344
L1758L
sVV60.2
p5345
L688L
sV300.3
p5346
L1374L
sVV87.39
p5347
L2702L
sV759.5
p5348
L2958L
sV721.3
p5349
L390L
sV363.63
p5350
L5500L
sV041.00
p5351
L1894L
sV368.01
p5352
L3647L
sV271.1
p5353
L6126L
sV352.9
p5354
L4813L
sV754.60
p5355
L3919L
sVV15.01
p5356
L7352L
sV370.03
p5357
L4239L
sV516.36
p5358
L7424L
sV047.9
p5359
L5604L
sVV67.1
p5360
L4546L
sV334.1
p5361
L5123L
sV530.85
p5362
L631L
sV663.31
p5363
L5948L
sV290.20
p5364
L3351L
sV204.10
p5365
L93L
sV912.6
p5366
L6558L
sV783.5
p5367
L4582L
sV722.11
p5368
L1193L
sV115.92
p5369
L3407L
sVE936.3
p5370
L2293L
sV375.00
p5371
L7388L
sV739.5
p5372
L3078L
sVE975
p5373
L6061L
sV371.52
p5374
L4955L
sV493.00
p5375
L261L
sV738.0
p5376
L4768L
sV242.80
p5377
L4993L
sV543.9
p5378
L4154L
sV530.89
p5379
L635L
sV747.39
p5380
L6982L
sV525.67
p5381
L7709L
sV995.82
p5382
L212L
sV493.01
p5383
L3496L
sV305.80
p5384
L6797L
sVV19.2
p5385
L7656L
sV410.90
p5386
L692L
sV654.43
p5387
L3251L
sV300.16
p5388
L6053L
sV807.4
p5389
L4151L
sV618.89
p5390
L2530L
sV808.9
p5391
L5316L
sV526.89
p5392
L7396L
sV755.55
p5393
L2715L
sV970.9
p5394
L6855L
sV709.4
p5395
L2820L
sV881.01
p5396
L1308L
sV839.41
p5397
L6767L
sV625.6
p5398
L352L
sVE930.8
p5399
L2658L
sV785.4
p5400
L1860L
sV215.8
p5401
L5669L
sV286.9
p5402
L370L
sV250.23
p5403
L1581L
sV716.98
p5404
L2136L
sV405.01
p5405
L2679L
sV282.3
p5406
L5358L
sV753.19
p5407
L2088L
sV782.8
p5408
L3890L
sV780.58
p5409
L4350L
sV880.03
p5410
L4988L
sV534.50
p5411
L6303L
sV441.5
p5412
L6805L
sV576.0
p5413
L1874L
sVV58.61
p5414
L222L
sV733.13
p5415
L1486L
sV682.5
p5416
L326L
sV368.44
p5417
L4468L
sV344.2
p5418
L6031L
sV659.23
p5419
L6947L
sV296.33
p5420
L1158L
sV006.6
p5421
L7364L
sV729.72
p5422
L6096L
sV812.41
p5423
L1621L
sV338.29
p5424
L101L
sV383.1
p5425
L3644L
sV724.79
p5426
L2648L
sV737.8
p5427
L6861L
sV964.2
p5428
L849L
sV428.30
p5429
L1079L
sV562.00
p5430
L2601L
sV712.30
p5431
L1362L
sV480.0
p5432
L4797L
sV727.62
p5433
L4056L
sV996.01
p5434
L4196L
sV730.26
p5435
L1094L
sV368.15
p5436
L3737L
sV789.02
p5437
L568L
sVV16.51
p5438
L7569L
sV524.63
p5439
L3094L
sV238.75
p5440
L1477L
sV755.38
p5441
L6076L
sV315.00
p5442
L1446L
sV211.1
p5443
L1298L
sV327.44
p5444
L6923L
sV389.12
p5445
L1799L
sVE879.8
p5446
L1098L
sV758.6
p5447
L2092L
sV292.85
p5448
L1331L
sV432.0
p5449
L5739L
sV036.2
p5450
L7776L
sV478.75
p5451
L6193L
sV726.12
p5452
L701L
sVV10.07
p5453
L4615L
sV441.00
p5454
L1400L
sVE863.4
p5455
L7048L
sV721.0
p5456
L711L
sVE882
p5457
L6659L
sV382.4
p5458
L4051L
sV987.8
p5459
L7797L
sV300.00
p5460
L82L
sV780.2
p5461
L51L
sV114.2
p5462
L4070L
sVV47.2
p5463
L7642L
sV795.71
p5464
L1765L
sV350.9
p5465
L6836L
sV376.4
p5466
L7539L
sV652.11
p5467
L7088L
sV124
p5468
L4663L
sV378.05
p5469
L6973L
sV296.03
p5470
L3289L
sV881.21
p5471
L6292L
sV787.99
p5472
L333L
sV779.81
p5473
L6810L
sVV49.60
p5474
L5821L
sV377.00
p5475
L6112L
sV346.9
p5476
L5212L
sV344.32
p5477
L4816L
sV780.92
p5478
L6668L
sV576.5
p5479
L6710L
sV307.59
p5480
L6051L
sVV29.8
p5481
L7810L
sV346.70
p5482
L2140L
sV627.3
p5483
L2030L
sV275.5
p5484
L5940L
sV453.77
p5485
L5553L
sV812.50
p5486
L5796L
sV215.7
p5487
L7579L
sV053.11
p5488
L3122L
sV295.11
p5489
L6626L
sV470
p5490
L1239L
sV652.81
p5491
L7689L
sVE888.0
p5492
L231L
sVV76.12
p5493
L660L
sV755.31
p5494
L5044L
sV719.50
p5495
L1134L
sV952.9
p5496
L4058L
sV173.21
p5497
L3729L
sV312.02
p5498
L6444L
sV291.3
p5499
L4270L
sV714.0
p5500
L691L
sV446.1
p5501
L6765L
sVV80.2
p5502
L892L
sV604.99
p5503
L5494L
sV309.24
p5504
L211L
sV719.40
p5505
L598L
sV265.1
p5506
L1671L
sV088.81
p5507
L7746L
sV427.81
p5508
L977L
sV321.3
p5509
L6538L
sVV85.4
p5510
L4835L
sV453.83
p5511
L3602L
sV007.4
p5512
L7728L
sVV10.60
p5513
L6416L
sV371.70
p5514
L4569L
sV494.1
p5515
L1543L
sVV79.9
p5516
L1715L
sVV45.69
p5517
L296L
sV783.7
p5518
L929L
sV600.01
p5519
L1262L
sV375.31
p5520
L5891L
sV203.10
p5521
L5420L
sV745.4
p5522
L3864L
sV569.3
p5523
L978L
sV844.2
p5524
L5401L
sV642.33
p5525
L4860L
sVE013.8
p5526
L6899L
sV526.2
p5527
L3740L
sVV53.02
p5528
L5662L
sVE929.0
p5529
L2368L
sV941.17
p5530
L6849L
sV295.34
p5531
L2153L
sV465.9
p5532
L528L
sV413.0
p5533
L3710L
sV904.7
p5534
L7771L
sV596.52
p5535
L2378L
sV349.9
p5536
L203L
sV941.30
p5537
L2309L
sV553.9
p5538
L1341L
sV401.9
p5539
L0L
sV389.7
p5540
L5744L
sV451.19
p5541
L369L
sV997.41
p5542
L4639L
sV202.83
p5543
L6167L
sV727.83
p5544
L1937L
sV751.1
p5545
L3719L
sV365.23
p5546
L1265L
sV364.81
p5547
L5816L
sV722.90
p5548
L2786L
sV442.82
p5549
L6436L
sV907.0
p5550
L14L
sV754.31
p5551
L5699L
sV906.5
p5552
L5730L
sV582.4
p5553
L6952L
sV701.0
p5554
L4083L
sV644.21
p5555
L5470L
sV307.52
p5556
L4182L
sV370.9
p5557
L4053L
sV718.27
p5558
L3803L
sV482.39
p5559
L2476L
sV622.2
p5560
L6812L
sVV18.19
p5561
L2458L
sV943.11
p5562
L6296L
sV302.72
p5563
L4087L
sV508.2
p5564
L458L
sVV81.0
p5565
L4304L
sV357.89
p5566
L6409L
sV823.00
p5567
L266L
sV386.8
p5568
L7286L
sV305.73
p5569
L2578L
sV444.0
p5570
L6445L
sV191.8
p5571
L2392L
sVV54.10
p5572
L3930L
sVE950.5
p5573
L783L
sV404.13
p5574
L4353L
sV711.86
p5575
L6760L
sV038.10
p5576
L5236L
sV831.00
p5577
L2732L
sV536.2
p5578
L1311L
sV382.3
p5579
L2460L
sV995.52
p5580
L5857L
sV952.01
p5581
L4057L
sV887.0
p5582
L5984L
sV628.8
p5583
L5722L
sV579.0
p5584
L2966L
sV348.81
p5585
L2410L
sV597.89
p5586
L4282L
sVV82.1
p5587
L3901L
sV824.4
p5588
L268L
sV684
p5589
L2723L
sV830.0
p5590
L3096L
sV200.40
p5591
L5593L
sV330.0
p5592
L5214L
sV715.12
p5593
L6455L
sV477.1
p5594
L755L
sV728.3
p5595
L1652L
sV054.72
p5596
L4508L
sV821.31
p5597
L4779L
sV155.1
p5598
L4647L
sV440.9
p5599
L983L
sV151.2
p5600
L4326L
sV301.3
p5601
L3688L
sV711.90
p5602
L3004L
sVV79.1
p5603
L16L
sV296.01
p5604
L149L
sVV53.59
p5605
L4661L
sV368.10
p5606
L1884L
sV374.87
p5607
L516L
sV404.90
p5608
L2785L
sV789.40
p5609
L4529L
sV844.1
p5610
L2661L
sVV53.91
p5611
L6390L
sV670.14
p5612
L7327L
sV352
p5613
L4181L
sV110.3
p5614
L1089L
sV090.0
p5615
L7647L
sV003.0
p5616
L3648L
sV807.06
p5617
L1777L
sV442.9
p5618
L2457L
sV300
p5619
L7454L
sV372.73
p5620
L5013L
sV941.15
p5621
L5331L
sV268.2
p5622
L544L
sV794.01
p5623
L6593L
sV429.82
p5624
L6305L
sV788.32
p5625
L2193L
sV161.9
p5626
L2822L
sV790.1
p5627
L3172L
sV235.6
p5628
L7086L
sV996.49
p5629
L2763L
sV382.01
p5630
L3590L
sV789.00
p5631
L289L
sVE917.1
p5632
L7104L
sV716.51
p5633
L1196L
sV896.2
p5634
L6257L
sV748.1
p5635
L6963L
sVV88.2
p5636
L7361L
sV756.56
p5637
L6143L
sV719.07
p5638
L891L
sV716.88
p5639
L2082L
sVE816.0
p5640
L4728L
sV584.5
p5641
L447L
sV590.2
p5642
L4792L
sV348.0
p5643
L1024L
sV682.3
p5644
L581L
sV295.23
p5645
L7063L
sV438.81
p5646
L2880L
sV530.11
p5647
L512L
sV523.11
p5648
L7801L
sV648.91
p5649
L3261L
sV327.41
p5650
L6268L
sVV62.84
p5651
L761L
sVV15.84
p5652
L5434L
sV378.15
p5653
L1953L
sV304.20
p5654
L2097L
sVV71.7
p5655
L2878L
sV874.4
p5656
L6771L
sV250.13
p5657
L1588L
sV374.20
p5658
L6064L
sV443.0
p5659
L2360L
sV852.12
p5660
L5867L
sV711.00
p5661
L1107L
sV735.5
p5662
L3813L
sV726.72
p5663
L910L
sV298.8
p5664
L1448L
sV320.3
p5665
L7788L
sV718.40
p5666
L1146L
sV722.10
p5667
L388L
sV277.30
p5668
L4220L
sVV15.09
p5669
L832L
sV202.06
p5670
L6939L
sV671.40
p5671
L7420L
sV295.31
p5672
L5256L
sV251.2
p5673
L223L
sV364.70
p5674
L7334L
sV371.48
p5675
L7749L
sV996.69
p5676
L1866L
sV799.9
p5677
L6L
sV209.20
p5678
L2848L
sV070.20
p5679
L4442L
sV879.1
p5680
L6721L
sV362.52
p5681
L488L
sV202.11
p5682
L6265L
sV997.1
p5683
L2034L
sV912.1
p5684
L5849L
sVE931.7
p5685
L7168L
sV640.03
p5686
L4845L
sV915.0
p5687
L2818L
sV918.1
p5688
L2202L
sV560.31
p5689
L4685L
sV921.9
p5690
L795L
sV197.6
p5691
L2852L
sV441.4
p5692
L1250L
sV327.14
p5693
L4294L
sV808.8
p5694
L1289L
sV275.0
p5695
L6013L
sV784.42
p5696
L1965L
sVV55.4
p5697
L2005L
sV403.11
p5698
L1680L
sV398.91
p5699
L3416L
sV693.1
p5700
L2979L
sV303.01
p5701
L765L
sV351.8
p5702
L2504L
sV821.00
p5703
L1173L
sVV81.4
p5704
L1500L
sV440.8
p5705
L1482L
sV077.1
p5706
L6652L
sV794.02
p5707
L2291L
sV300.89
p5708
L5561L
sV743.69
p5709
L7277L
sV250.02
p5710
L80L
sV170.5
p5711
L6713L
sV676.84
p5712
L4405L
sV290.21
p5713
L3282L
sV542
p5714
L3982L
sV371.54
p5715
L5815L
sVE858.4
p5716
L6443L
sV414.19
p5717
L3216L
sV197.8
p5718
L5167L
sV512.84
p5719
L2892L
sV868.09
p5720
L4232L
sVV12.40
p5721
L4750L
sV379.91
p5722
L572L
sVV06.5
p5723
L1865L
sV253.0
p5724
L6800L
sV572.1
p5725
L7467L
sV571.42
p5726
L1015L
sV608.9
p5727
L2063L
sV364.3
p5728
L1352L
sV437.1
p5729
L49L
sV300.7
p5730
L1458L
sV053.9
p5731
L538L
sV443.23
p5732
L7731L
sV873.22
p5733
L7123L
sV566
p5734
L343L
sV428
p5735
L6160L
sV596.83
p5736
L7275L
sV686.01
p5737
L2471L
sV596.9
p5738
L1013L
sV730.90
p5739
L7371L
sV701.2
p5740
L2837L
sV413.9
p5741
L896L
sV759.9
p5742
L5719L
sVE942.4
p5743
L6446L
sV434.01
p5744
L2044L
sV945.04
p5745
L4578L
sV906.3
p5746
L4705L
sV278.2
p5747
L2945L
sVV82.71
p5748
L6078L
sV730.06
p5749
L3690L
sVV50.0
p5750
L7114L
sV508.8
p5751
L5759L
sVE939.8
p5752
L4376L
sV379.92
p5753
L791L
sV583.4
p5754
L5994L
sVE887
p5755
L57L
sV803.31
p5756
L4906L
sV041.01
p5757
L3162L
sV531.10
p5758
L4111L
sVV71.6
p5759
L2865L
sV974.5
p5760
L2255L
sVV72.32
p5761
L4191L
sV289.51
p5762
L5653L
sV959.14
p5763
L5764L
sVE819.0
p5764
L3573L
sVV13.02
p5765
L1509L
sV845.10
p5766
L1337L
sVE935.3
p5767
L1986L
sV875.1
p5768
L3760L
sV728.5
p5769
L4528L
sV173.60
p5770
L5765L
sV242.30
p5771
L3321L
sV794.19
p5772
L6756L
sV197.5
p5773
L356L
sV530.7
p5774
L3425L
sV924.8
p5775
L485L
sV661.90
p5776
L7727L
sV707.14
p5777
L105L
sV507.0
p5778
L286L
sV733.02
p5779
L1483L
sV847.3
p5780
L3978L
sV286.52
p5781
L6118L
sV053.13
p5782
L2167L
sV595.3
p5783
L5368L
sV808.0
p5784
L4006L
sV249.40
p5785
L2342L
sVE876.2
p5786
L5135L
sV296.20
p5787
L380L
sV799.81
p5788
L3075L
sV836.60
p5789
L7312L
sV656.83
p5790
L7304L
sV228.00
p5791
L2531L
sVV70.3
p5792
L1932L
sV516.9
p5793
L5378L
sV727.42
p5794
L2022L
sV274.02
p5795
L3638L
sV363.00
p5796
L7379L
sV369.73
p5797
L5790L
sV297.0
p5798
L7548L
sV387.9
p5799
L2959L
sV482.2
p5800
L6026L
sV582.89
p5801
L4370L
sVV71.81
p5802
L1920L
sV296.22
p5803
L2081L
sVV65.19
p5804
L3389L
sV493.81
p5805
L1919L
sV997.99
p5806
L4023L
sV365.20
p5807
L3969L
sV906.2
p5808
L2769L
sV146.2
p5809
L6536L
sV574.41
p5810
L5467L
sV825.1
p5811
L6967L
sV780.91
p5812
L5140L
sVV58.78
p5813
L874L
sV358.9
p5814
L4986L
sV711.60
p5815
L6468L
sV815.03
p5816
L3963L
sV786.7
p5817
L623L
sVE814.6
p5818
L6786L
sVV14.5
p5819
L1245L
sV741.00
p5820
L4997L
sV313.83
p5821
L3471L
sV666.22
p5822
L7326L
sV529.9
p5823
L6408L
sV432.9
p5824
L2841L
sV478.79
p5825
L5570L
sVV42.5
p5826
L1856L
sV455.0
p5827
L644L
sV428.42
p5828
L2374L
sVV81.5
p5829
L3419L
sV333.91
p5830
L5977L
sV748.60
p5831
L2975L
sV335.10
p5832
L5239L
sV282.7
p5833
L1995L
sV304.33
p5834
L2118L
sV780.39
p5835
L3L
sV228.02
p5836
L3180L
sV600.0
p5837
L5464L
sVV27.0
p5838
L2751L
sVV10.88
p5839
L7765L
sV788.38
p5840
L4144L
sV792.1
p5841
L1751L
sV790.99
p5842
L685L
sV969.05
p5843
L785L
sV250.20
p5844
L1663L
sVE868.9
p5845
L6237L
sV528.9
p5846
L2232L
sV719.47
p5847
L219L
sV318.10
p5848
L6956L
sV366.12
p5849
L2094L
sV581.81
p5850
L3207L
sVV60.3
p5851
L2620L
sV039.0
p5852
L4821L
sV801.01
p5853
L4003L
sV619.0
p5854
L338L
sV491.22
p5855
L1981L
sV394.0
p5856
L840L
sV210.0
p5857
L7221L
sV872.8
p5858
L5103L
sV305.03
p5859
L764L
sV719.62
p5860
L3593L
sV808.53
p5861
L4256L
sV733.3
p5862
L2692L
sV994.3
p5863
L7568L
sV379.12
p5864
L7090L
sV250.80
p5865
L316L
sV786.3
p5866
L7625L
sV965.4
p5867
L2271L
sV716.99
p5868
L1305L
sV070.41
p5869
L619L
sV648.03
p5870
L2739L
sV785.59
p5871
L2250L
sV945.26
p5872
L6378L
sV907.9
p5873
L5606L
sV301.13
p5874
L3718L
sV780.54
p5875
L736L
sV718.65
p5876
L6175L
sV249.70
p5877
L561L
sV173.50
p5878
L2213L
sV789.31
p5879
L2570L
sV309.9
p5880
L4590L
sV601.9
p5881
L1541L
sVV71.09
p5882
L2101L
sV608.86
p5883
L2062L
sVV54.9
p5884
L3061L
sV789.63
p5885
L4629L
sV386.54
p5886
L3156L
sV305.0
p5887
L5296L
sVV43.3
p5888
L851L
sV275.03
p5889
L2980L
sVV50.1
p5890
L6720L
sVV80.09
p5891
L2566L
sVE858.2
p5892
L7518L
sV736.6
p5893
L3993L
sV295.42
p5894
L5645L
sV305.53
p5895
L148L
sV301.4
p5896
L5643L
sV569.9
p5897
L1628L
sV300.81
p5898
L2112L
sVV55.3
p5899
L3724L
sV719.03
p5900
L1978L
sV807.07
p5901
L4066L
sV879.8
p5902
L790L
sVV04.0
p5903
L6970L
sV564.3
p5904
L5134L
sV729.92
p5905
L4045L
sV674.80
p5906
L5474L
sV438.10
p5907
L75L
sV310.8
p5908
L7566L
sV315.39
p5909
L3475L
sV715.95
p5910
L651L
sV362.64
p5911
L4788L
sV038.41
p5912
L3900L
sV413.1
p5913
L690L
sV802.6
p5914
L4005L
sV923.11
p5915
L801L
sV295.22
p5916
L7649L
sV191.1
p5917
L6703L
sV577.8
p5918
L674L
sV209.03
p5919
L2843L
sV110.4
p5920
L1220L
sV860.2
p5921
L1778L
sVE906.3
p5922
L4300L
sV438.52
p5923
L4756L
sV241.0
p5924
L1263L
sV359.0
p5925
L5976L
sV724.6
p5926
L669L
sV214.0
p5927
L3780L
sV414.06
p5928
L3565L
sV646.23
p5929
L4853L
sV253.1
p5930
L4622L
sV995.2
p5931
L7799L
sV309.89
p5932
L5319L
sVE815.0
p5933
L5825L
sV464.4
p5934
L2864L
sV063.8
p5935
L6545L
sV236.4
p5936
L4198L
sV575.4
p5937
L1190L
sV385.32
p5938
L6276L
sV719.4
p5939
L6256L
sV564.01
p5940
L2055L
sV238.9
p5941
L4245L
sV291.9
p5942
L2149L
sV372.13
p5943
L4170L
sV209.21
p5944
L7373L
sV304.10
p5945
L2178L
sVE858.7
p5946
L7635L
sV312.82
p5947
L5289L
sV202.80
p5948
L1695L
sV146.0
p5949
L5370L
sV304.61
p5950
L3463L
sV995.85
p5951
L2287L
sV996.52
p5952
L1869L
sV733.6
p5953
L981L
sVV28.81
p5954
L4848L
sV532.00
p5955
L5070L
sV715.90
p5956
L114L
sV714.4
p5957
L625L
sV716.84
p5958
L5389L
sV271.9
p5959
L4174L
sV903.1
p5960
L7235L
sV481
p5961
L897L
sV343.4
p5962
L5382L
sVV49.86
p5963
L137L
sV443.82
p5964
L5705L
sV854.10
p5965
L7392L
sV381.60
p5966
L7597L
sV850.9
p5967
L2159L
sV386.00
p5968
L1506L
sV359.9
p5969
L2308L
sV327.27
p5970
L1773L
sV796.5
p5971
L4919L
sV183.0
p5972
L3527L
sVV26.21
p5973
L7039L
sV718.2
p5974
L1772L
sVV13.24
p5975
L7462L
sV701.1
p5976
L258L
sV485
p5977
L2890L
sV308.9
p5978
L2383L
sV717.9
p5979
L1191L
sV676.60
p5980
L6911L
sV112.5
p5981
L5532L
sV202.91
p5982
L6204L
sVV13.89
p5983
L515L
sV718.01
p5984
L4687L
sV574.30
p5985
L5951L
sV537.6
p5986
L7521L
sV707.04
p5987
L2017L
sV365.24
p5988
L5831L
sV531.61
p5989
L5372L
sV704.01
p5990
L3235L
sV250.53
p5991
L3524L
sV997.01
p5992
L6801L
sV340
p5993
L932L
sV555.2
p5994
L4772L
sV117.7
p5995
L4942L
sVE947.9
p5996
L917L
sV912.9
p5997
L5449L
sVV45.89
p5998
L513L
sV351.0
p5999
L889L
sV989.5
p6000
L1309L
sVV54.14
p6001
L1172L
sVE939.0
p6002
L5572L
sV232.2
p6003
L6172L
sV620.0
p6004
L5113L
sV596.59
p6005
L3123L
sV379.16
p6006
L5728L
sV199.0
p6007
L4784L
sV346.12
p6008
L3576L
sV232.5
p6009
L3086L
sVV45.78
p6010
L3894L
sV692.2
p6011
L3848L
sV755.59
p6012
L3236L
sV279.12
p6013
L6587L
sVV54.23
p6014
L2618L
sV530.83
p6015
L724L
sVE850.6
p6016
L6042L
sV310.1
p6017
L3356L
sV534.40
p6018
L6953L
sV730.88
p6019
L4976L
sV727.01
p6020
L6472L
sV867.8
p6021
L5896L
sV300.12
p6022
L6889L
sV619.1
p6023
L2783L
sV805.12
p6024
L7705L
sV972.9
p6025
L4100L
sV232.9
p6026
L7054L
sV173.81
p6027
L4137L
sV519.9
p6028
L2572L
sV250.60
p6029
L174L
sV839.20
p6030
L4693L
sV787.21
p6031
L1357L
sV794.4
p6032
L1563L
sV825.0
p6033
L3549L
sV296.55
p6034
L1073L
sV788.99
p6035
L2026L
sV621.6
p6036
L2697L
sV192.2
p6037
L2394L
sVE950.9
p6038
L3608L
sV453.3
p6039
L2236L
sV747.69
p6040
L5906L
sVE902.0
p6041
L4308L
sV186.9
p6042
L6024L
sV823.41
p6043
L7681L
sV861.01
p6044
L5269L
sV755.63
p6045
L1270L
sVV62.83
p6046
L7570L
sV730.09
p6047
L4791L
sV674.20
p6048
L7262L
sVE898.1
p6049
L7143L
sV568.89
p6050
L2003L
sV795.51
p6051
L1351L
sV343.1
p6052
L1051L
sV574.11
p6053
L5048L
sVV54.01
p6054
L1334L
sV758.0
p6055
L621L
sV353.3
p6056
L7154L
sV375.30
p6057
L6971L
sV552.3
p6058
L2641L
sV863.40
p6059
L6326L
sV353.2
p6060
L1817L
sV276.9
p6061
L450L
sV995.0
p6062
L3133L
sV564.2
p6063
L4607L
sV656.13
p6064
L5198L
sVV76
p6065
L6745L
sV795.79
p6066
L1403L
sV115.00
p6067
L6063L
sV641.93
p6068
L4894L
sV527.2
p6069
L1065L
sV272.1
p6070
L1252L
sV607.2
p6071
L5504L
sV295.95
p6072
L3478L
sV750.7
p6073
L4109L
sV312.9
p6074
L2246L
sV867.0
p6075
L3030L
sV970.1
p6076
L5546L
sV307.20
p6077
L4225L
sV802.24
p6078
L3456L
sV807.5
p6079
L6323L
sV346.81
p6080
L5047L
sV488.82
p6081
L5734L
sV648.33
p6082
L4854L
sV550.00
p6083
L7314L
sV654.51
p6084
L7306L
sV269.1
p6085
L2984L
sV384.00
p6086
L6348L
sV730.70
p6087
L5571L
sV512.1
p6088
L4498L
sV715.04
p6089
L4488L
sV255.5
p6090
L2522L
sV457.0
p6091
L3811L
sV918.2
p6092
L2988L
sV512.2
p6093
L5402L
sVE922.4
p6094
L7157L
sV686.1
p6095
L2720L
sV442.89
p6096
L1434L
sV876.1
p6097
L3036L
sV864.00
p6098
L5933L
sV799.90
p6099
L4547L
sV338
p6100
L2147L
sVV72.85
p6101
L1116L
sV715.32
p6102
L803L
sV110.8
p6103
L2146L
sV850.11
p6104
L3218L
sV427.61
p6105
L1419L
sV996.2
p6106
L4190L
sV295
p6107
L7096L
sVV45.61
p6108
L1813L
sV996.81
p6109
L2343L
sV756.59
p6110
L3543L
sV621.0
p6111
L2488L
sV410.10
p6112
L2575L
sVV87.41
p6113
L1842L
sV713.8
p6114
L5539L
sVV06.0
p6115
L1023L
sV516.31
p6116
L1958L
sV935.1
p6117
L4116L
sVV09.1
p6118
L5922L
sV272.4
p6119
L94L
sV402.10
p6120
L1468L
sV735.1
p6121
L5832L
sV357.6
p6122
L2925L
sVE825.9
p6123
L3038L
sV235.0
p6124
L3481L
sV240.0
p6125
L4021L
sVE880.1
p6126
L2351L
sV374.89
p6127
L3725L
sVV58.12
p6128
L1849L
sV010.05
p6129
L6906L
sV791.4
p6130
L7692L
sV965.69
p6131
L7249L
sVE855.0
p6132
L7402L
sV288.00
p6133
L1697L
sV553.3
p6134
L632L
sV743.9
p6135
L6361L
sV327.12
p6136
L7549L
sV799.21
p6137
L3464L
sV357.81
p6138
L5712L
sV818.0
p6139
L4971L
sV513.1
p6140
L7418L
sV194.3
p6141
L6912L
sV379.57
p6142
L7211L
sV442.0
p6143
L4436L
sV519.11
p6144
L1521L
sV655.53
p6145
L4858L
sV708.8
p6146
L3007L
sV998.01
p6147
L5089L
sV715.30
p6148
L1883L
sV996.55
p6149
L5660L
sV289.81
p6150
L972L
sV813.83
p6151
L4989L
sV805.00
p6152
L2402L
sVV90.9
p6153
L4836L
sVE934.2
p6154
L848L
sV537.84
p6155
L6968L
sV868.00
p6156
L6322L
sV041.83
p6157
L2780L
sV789.32
p6158
L5914L
sV866.11
p6159
L4157L
sVV49.71
p6160
L3700L
sV312.03
p6161
L2420L
sV204.01
p6162
L2927L
sV911.2
p6163
L6673L
sVV72.60
p6164
L65L
sV368.41
p6165
L5981L
sV202.40
p6166
L6037L
sV292.82
p6167
L7637L
sV727.67
p6168
L6234L
sV634.72
p6169
L4896L
sV194.6
p6170
L5390L
sV290.42
p6171
L3381L
sV727.61
p6172
L2157L
sV649.53
p6173
L3249L
sV308.1
p6174
L3188L
sV528.01
p6175
L2928L
sV944.24
p6176
L7342L
sV272.0
p6177
L220L
sV174.1
p6178
L3809L
sV420.90
p6179
L3795L
sV281.8
p6180
L4826L
sV170.2
p6181
L2396L
sV717.85
p6182
L6083L
sV716.58
p6183
L5630L
sV646.80
p6184
L2559L
sV359.6
p6185
L4044L
sV447.8
p6186
L1915L
sV711.95
p6187
L420L
sV211.4
p6188
L1297L
sV337.20
p6189
L3895L
sVV23.82
p6190
L7067L
sV742.53
p6191
L4592L
sV292.81
p6192
L2292L
sVV53.01
p6193
L6811L
sV141.6
p6194
L6205L
sV816.00
p6195
L2755L
sVV62.9
p6196
L1356L
sV173.01
p6197
L3730L
sV782.1
p6198
L284L
sV848.1
p6199
L5182L
sV807.02
p6200
L1599L
sV750.4
p6201
L5032L
sV580.81
p6202
L6183L
sVV81.6
p6203
L1502L
sV838.09
p6204
L5997L
sV730.30
p6205
L7225L
sV894.0
p6206
L3276L
sV338.0
p6207
L2961L
sV941.22
p6208
L7678L
sVV43.66
p6209
L5099L
sV999.52
p6210
L7310L
sV529.4
p6211
L7609L
sV493.92
p6212
L620L
sV065.0
p6213
L3747L
sV299.91
p6214
L7289L
sV729.0
p6215
L2171L
sV682.7
p6216
L97L
sV070.9
p6217
L5216L
sV832.03
p6218
L6198L
sV156.9
p6219
L4938L
sV697.9
p6220
L6428L
sVE855.9
p6221
L7577L
sV288.4
p6222
L3564L
sV839.03
p6223
L3929L
sV153.1
p6224
L7205L
sV173.9
p6225
L6589L
sV669.51
p6226
L7794L
sV622.11
p6227
L6530L
sVV59.2
p6228
L2856L
sV641.13
p6229
L7072L
sV041.85
p6230
L1117L
sVV65.43
p6231
L4177L
sVV45.52
p6232
L5203L
sV414.00
p6233
L208L
sVV25.5
p6234
L3635L
sV642.71
p6235
L6518L
sV780.31
p6236
L1752L
sV415.11
p6237
L3150L
sV718.93
p6238
L4163L
sV424.1
p6239
L846L
sV292.89
p6240
L2108L
sV237.4
p6241
L3132L
sV237.2
p6242
L5247L
sV729.30
p6243
L5406L
sV230.0
p6244
L7056L
sV011.00
p6245
L7685L
sVE980.4
p6246
L779L
sV952.16
p6247
L2163L
sV371.61
p6248
L7193L
sV075
p6249
L3341L
sV623.2
p6250
L5625L
sVE967.2
p6251
L6285L
sV388.31
p6252
L2363L
sV291.89
p6253
L3060L
sV820.00
p6254
L1795L
sV034.1
p6255
L6776L
sV403.91
p6256
L1301L
sV780.51
p6257
L1199L
sVE929.8
p6258
L2550L
sV371.57
p6259
L1160L
sV295.45
p6260
L2263L
sV345.3
p6261
L138L
sV813.41
p6262
L2455L
sV287.31
p6263
L1684L
sV209.79
p6264
L2844L
sV715.9
p6265
L6717L
sV536.8
p6266
L721L
sV796.1
p6267
L320L
sV583.89
p6268
L5528L
sVE905.9
p6269
L7288L
sV342.9
p6270
L6900L
sV707.22
p6271
L1653L
sV533.71
p6272
L5576L
sV737.43
p6273
L1176L
sV378.32
p6274
L7171L
sV532.91
p6275
L6231L
sV426.7
p6276
L7106L
sV229.0
p6277
L5317L
sV365.44
p6278
L6014L
sVV03.7
p6279
L4401L
sVV62.81
p6280
L2987L
sV410.51
p6281
L3311L
sV719.49
p6282
L991L
sV722.70
p6283
L7004L
sV461.9
p6284
L671L
sV438.20
p6285
L954L
sV426.2
p6286
L37L
sV789.0
p6287
L4600L
sVV64.06
p6288
L156L
sV146
p6289
L7097L
sV553.01
p6290
L6456L
sV341.8
p6291
L5376L
sV478.31
p6292
L5668L
sVE927.2
p6293
L2935L
sV975.2
p6294
L3082L
sV574.60
p6295
L2842L
sV444.2
p6296
L1186L
sV414.2
p6297
L2182L
sV822.0
p6298
L1835L
sVV45.09
p6299
L2027L
sV360.00
p6300
L3211L
sV618.1
p6301
L1631L
sV252.1
p6302
L3843L
sVV72.40
p6303
L2274L
sV785.9
p6304
L545L
sV211.7
p6305
L7421L
sV291.4
p6306
L5290L
sV633.01
p6307
L5205L
sV363.01
p6308
L6351L
sV364.02
p6309
L5617L
sVV85.23
p6310
L3520L
sV832.02
p6311
L5800L
sV356.9
p6312
L546L
sVV19.8
p6313
L3653L
sV385.23
p6314
L3645L
sV315.4
p6315
L3472L
sV593.5
p6316
L3862L
sVV69.4
p6317
L5407L
sVV40.3
p6318
L6748L
sV525.3
p6319
L3084L
sV558.2
p6320
L5885L
sV428.40
p6321
L905L
sV569.81
p6322
L3615L
sV456.1
p6323
L469L
sVE980.2
p6324
L6347L
sV114.9
p6325
L4076L
sV562.01
p6326
L5185L
sV237.6
p6327
L6363L
sVE968.9
p6328
L2549L
sV642.94
p6329
L5475L
sV038.3
p6330
L3695L
sV426.81
p6331
L4378L
sV832.04
p6332
L5801L
sV718.42
p6333
L1519L
sV730.87
p6334
L3544L
sV362.43
p6335
L6919L
sVV57.21
p6336
L2652L
sV654.20
p6337
L7471L
sV917.5
p6338
L4410L
sV273.1
p6339
L116L
sV744.29
p6340
L3160L
sV198.4
p6341
L6774L
sV851.20
p6342
L7461L
sV070.51
p6343
L973L
sV528.2
p6344
L1923L
sV996.66
p6345
L410L
sV410.71
p6346
L898L
sV925.2
p6347
L7688L
sV453.73
p6348
L4706L
sV823.80
p6349
L265L
sV304.01
p6350
L121L
sV907.1
p6351
L7578L
sV211.3
p6352
L197L
sV624.02
p6353
L3183L
sV433.9
p6354
L7409L
sV253.5
p6355
L87L
sV363.30
p6356
L1613L
sV872.12
p6357
L7407L
sV730.15
p6358
L3703L
sVE885.0
p6359
L7265L
sV408.45
p6360
L4717L
sV823.20
p6361
L4092L
sV821.01
p6362
L2728L
sV096
p6363
L7017L
sV998.2
p6364
L1687L
sV276.4
p6365
L1080L
sV737.30
p6366
L1528L
sV299.00
p6367
L4171L
sVV10.05
p6368
L391L
sV384.20
p6369
L1763L
sVV58.69
p6370
L128L
sV447.6
p6371
L1167L
sV996.31
p6372
L2257L
sVE928.3
p6373
L4506L
sV618.6
p6374
L4421L
sV005.9
p6375
L3366L
sVE815.1
p6376
L3316L
sV721.90
p6377
L648L
sV718.21
p6378
L7283L
sV753.20
p6379
L7268L
sVE890.3
p6380
L454L
sV598.9
p6381
L2875L
sV361.32
p6382
L4625L
sV370.24
p6383
L7558L
sVV43.0
p6384
L3987L
sV346.93
p6385
L4449L
sV834.00
p6386
L4489L
sVV04.81
p6387
L2L
sV356.2
p6388
L5833L
sV361.30
p6389
L4122L
sV574.61
p6390
L4804L
sV567.1
p6391
L4430L
sV232.0
p6392
L7682L
sV757.8
p6393
L7343L
sV552.21
p6394
L1544L
sV716.86
p6395
L4929L
sV256.31
p6396
L2806L
sVV12.3
p6397
L1886L
sV346.72
p6398
L4887L
sV680.7
p6399
L2324L
sV453.0
p6400
L7798L
sV755.66
p6401
L2903L
sV592.1
p6402
L836L
sV715.36
p6403
L519L
sV094.1
p6404
L4493L
sV558.9
p6405
L194L
sV960.0
p6406
L5435L
sV728.87
p6407
L84L
sV680.3
p6408
L4726L
sV729.2
p6409
L435L
sV891.0
p6410
L780L
sV736.42
p6411
L5953L
sVE858.3
p6412
L4513L
sV782.3
p6413
L414L
sV802.25
p6414
L6628L
sV716.59
p6415
L143L
sV801.80
p6416
L1668L
sV711.02
p6417
L6935L
sV716.95
p6418
L421L
sV584.8
p6419
L2889L
sVV10.02
p6420
L4786L
sV033.8
p6421
L6881L
sV601.2
p6422
L4959L
sV997.31
p6423
L1326L
sV278.00
p6424
L50L
sV644.13
p6425
L3632L
sV346.03
p6426
L3217L
sVE858.6
p6427
L4148L
sV457.1
p6428
L926L
sV374.82
p6429
L833L
sVE000.8
p6430
L3268L
sVE812.1
p6431
L2189L
sV817.0
p6432
L3338L
sV269.3
p6433
L3764L
sV996.02
p6434
L4618L
sV474.9
p6435
L5785L
sV854.04
p6436
L68L
sVV15.05
p6437
L1520L
sV112.2
p6438
L2954L
sV428.4
p6439
L4605L
sV611.71
p6440
L187L
sVV87.43
p6441
L4040L
sV560.32
p6442
L2902L
sVE935.8
p6443
L4790L
sV752.69
p6444
L4675L
sVE930.1
p6445
L7460L
sV851.81
p6446
L3480L
sVV59.4
p6447
L6874L
sV787.29
p6448
L1941L
sV719.31
p6449
L6138L
sV656.81
p6450
L2496L
sV360.33
p6451
L6790L
sV754.0
p6452
L5716L
sV966.4
p6453
L6142L
sV526.0
p6454
L7443L
sVV12.70
p6455
L3267L
sV825.24
p6456
L3854L
sVE850.9
p6457
L5362L
sV757.32
p6458
L6441L
sV656.53
p6459
L4923L
sVE958.8
p6460
L3622L
sV518.52
p6461
L4019L
sVE967.0
p6462
L5544L
sV922.2
p6463
L1975L
sVV58.62
p6464
L1518L
sV160.0
p6465
L6307L
sV354.9
p6466
L3517L
sV940.9
p6467
L2313L
sV453.51
p6468
L2239L
sV371.89
p6469
L4242L
sV454.9
p6470
L1219L
sV426.10
p6471
L3182L
sV246.2
p6472
L2694L
sV378.45
p6473
L5955L
sV625.71
p6474
L7360L
sV376.32
p6475
L5261L
sV853.06
p6476
L5605L
sV945.32
p6477
L7200L
sV070.70
p6478
L112L
sV728.13
p6479
L4266L
sV519.8
p6480
L3307L
sV057.9
p6481
L419L
sV378.11
p6482
L3359L
sVE968.2
p6483
L4231L
sV718.91
p6484
L1201L
sV170.7
p6485
L5661L
sV813.42
p6486
L1287L
sV595.81
p6487
L5008L
sV200.60
p6488
L6573L
sV304.21
p6489
L3657L
sV704.00
p6490
L2025L
sV189.2
p6491
L5339L
sV162.9
p6492
L826L
sV961.0
p6493
L5441L
sV801.00
p6494
L3225L
sVV60.89
p6495
L5363L
sV753.10
p6496
L2781L
sVV61.09
p6497
L4485L
sV525.64
p6498
L6989L
sV852.01
p6499
L5868L
sV942.24
p6500
L4418L
sV586
p6501
L496L
sV173.82
p6502
L5909L
sV685.1
p6503
L3274L
sVE967.5
p6504
L4230L
sV209.36
p6505
L5073L
sV748.69
p6506
L2525L
sV647.81
p6507
L5950L
sVE878.9
p6508
L1101L
sV488.12
p6509
L6314L
sV380.16
p6510
L5810L
sV295.10
p6511
L3484L
sV309.28
p6512
L238L
sVV58.11
p6513
L360L
sV453.82
p6514
L1081L
sV728.88
p6515
L24L
sV516.2
p6516
L6025L
sV414.05
p6517
L1497L
sV472.1
p6518
L4596L
sV189.1
p6519
L3881L
sV295.71
p6520
L5754L
sV380.11
p6521
L5601L
sV842.13
p6522
L4668L
sV583.9
p6523
L1870L
sV582.2
p6524
L7505L
sV205.80
p6525
L4745L
sV910.4
p6526
L5490L
sV628.0
p6527
L7606L
sV364.01
p6528
L1271L
sV293.82
p6529
L3620L
sV715.23
p6530
L6618L
sV377.43
p6531
L6630L
sV198.82
p6532
L2851L
sV919.3
p6533
L5158L
sVV06.3
p6534
L2862L
sV571.6
p6535
L2943L
sV372.06
p6536
L3938L
sV425.7
p6537
L6457L
sV238.2
p6538
L291L
sV770.18
p6539
L6631L
sV304.70
p6540
L2285L
sV461.1
p6541
L1495L
sV225.1
p6542
L3977L
sV753.6
p6543
L7094L
sV768.73
p6544
L5932L
sV475
p6545
L6795L
sVE884.2
p6546
L1862L
sV719.14
p6547
L5503L
sVV41.0
p6548
L4635L
sV437.4
p6549
L4071L
sV924.9
p6550
L264L
sV529.0
p6551
L3669L
sVV76.47
p6552
L2142L
sV642.31
p6553
L2482L
sV237.71
p6554
L3991L
sV362.16
p6555
L3500L
sV322.9
p6556
L2919L
sV535.11
p6557
L3392L
sV808.2
p6558
L1803L
sV377.24
p6559
L6936L
sV942.03
p6560
L3035L
sVV12.69
p6561
L416L
sV629.89
p6562
L3680L
sV446.20
p6563
L5334L
sV283.0
p6564
L5562L
sVV18.4
p6565
L7552L
sV327.31
p6566
L4998L
sVV07.0
p6567
L4435L
sV599.5
p6568
L4422L
sV724.01
p6569
L1858L
sV754.71
p6570
L4032L
sV707.23
p6571
L1062L
sV402.00
p6572
L3678L
sV909.0
p6573
L798L
sV629.81
p6574
L5533L
sV701.4
p6575
L2227L
sV250.00
p6576
L95L
sV437.8
p6577
L2688L
sVV80.3
p6578
L7563L
sV436
p6579
L158L
sV703.9
p6580
L91L
sV872.61
p6581
L5864L
sVV23.89
p6582
L4536L
sV380.50
p6583
L6283L
sVV74.8
p6584
L4753L
sV374.30
p6585
L1467L
sV171.3
p6586
L4207L
sV314.00
p6587
L2115L
sV388.60
p6588
L5344L
sVV12.49
p6589
L1120L
sV719.81
p6590
L3029L
sV883.2
p6591
L2811L
sV200.16
p6592
L7021L
sV197.3
p6593
L6487L
sV787.22
p6594
L1389L
sV998.33
p6595
L4046L
sV112.84
p6596
L828L
sV311
p6597
L89L
sV238.79
p6598
L2788L
sVV64.09
p6599
L4175L
sV249.21
p6600
L5190L
sV385.31
p6601
L7199L
sV824.0
p6602
L4194L
sV378.22
p6603
L7515L
sV943.09
p6604
L6165L
sV727.65
p6605
L7218L
sV796.4
p6606
L118L
sV070.59
p6607
L7174L
sVV15.82
p6608
L532L
sV996.80
p6609
L5647L
sV642.73
p6610
L6517L
sVV54.26
p6611
L4454L
sV519.3
p6612
L2580L
sV756.83
p6613
L6254L
sV533.40
p6614
L3354L
sV839.04
p6615
L7532L
sV275.9
p6616
L5226L
sV930.1
p6617
L556L
sV726.90
p6618
L1121L
sV410.00
p6619
L957L
sVE852.8
p6620
L5107L
sVV70.0
p6621
L185L
sV618.83
p6622
L5720L
sV863.20
p6623
L4764L
sV842.10
p6624
L2139L
sV112.81
p6625
L6469L
sV599.82
p6626
L3191L
sV134.9
p6627
L4557L
sV716.91
p6628
L2194L
sV729.99
p6629
L1532L
sV525.25
p6630
L2230L
sVE942.1
p6631
L7416L
sVV71.2
p6632
L4080L
sV569.42
p6633
L2477L
sV883.1
p6634
L2812L
sV784.52
p6635
L6799L
sV909.2
p6636
L5690L
sV369.68
p6637
L7133L
sV250.0
p6638
L4050L
sV374.10
p6639
L1810L
sV461.8
p6640
L2128L
sVV85.53
p6641
L6461L
sV812.10
p6642
L5342L
sV577.9
p6643
L1823L
sV704.41
p6644
L6073L
sVE884.0
p6645
L7666L
sV368.8
p6646
L893L
sV620.2
p6647
L1320L
sV892.0
p6648
L104L
sVV85.34
p6649
L4738L
sV911.0
p6650
L1440L
sV360.51
p6651
L7766L
sV995.94
p6652
L3417L
sV825.20
p6653
L1170L
sV257.0
p6654
L2731L
sV292.9
p6655
L2577L
sV913.6
p6656
L7251L
sV707.9
p6657
L2974L
sV345.01
p6658
L4671L
sV453.41
p6659
L367L
sV141.4
p6660
L6913L
sV698.8
p6661
L2914L
sV781.92
p6662
L706L
sV151.0
p6663
L3823L
sV942.22
p6664
L7475L
sV306.1
p6665
L1393L
sV410.80
p6666
L4398L
sVE821.0
p6667
L6553L
sV841.9
p6668
L2168L
sV620.1
p6669
L4475L
sVV76.11
p6670
L1891L
sVE930.0
p6671
L6190L
sV195.2
p6672
L3119L
sV975.4
p6673
L7811L
sV308.0
p6674
L3662L
sV642.43
p6675
L4861L
sV826.0
p6676
L307L
sV305.93
p6677
L3427L
sV360.30
p6678
L6681L
sV614.1
p6679
L5512L
sV240.9
p6680
L1698L
sV924.11
p6681
L33L
sVV23.2
p6682
L6894L
sV715.93
p6683
L3696L
sVV17.5
p6684
L4817L
sV209.10
p6685
L5779L
sV202.20
p6686
L4411L
sV378.42
p6687
L4343L
sVV46.3
p6688
L293L
sV720.0
p6689
L3749L
sV756.12
p6690
L1492L
sV785.50
p6691
L2254L
sV711.96
p6692
L2871L
sVE818.9
p6693
L3831L
sV555.0
p6694
L3488L
sV315.32
p6695
L1055L
sV716.92
p6696
L4295L
sV781.99
p6697
L971L
sV716.14
p6698
L3912L
sVV58.4
p6699
L5312L
sV093.22
p6700
L5757L
sV411.89
p6701
L1608L
sV307.51
p6702
L4914L
sV296.63
p6703
L2113L
sV277.09
p6704
L1719L
sVV49.87
p6705
L3046L
sV157.9
p6706
L4644L
sV852.04
p6707
L5957L
sV897.3
p6708
L3693L
sVV13.03
p6709
L5451L
sV008.42
p6710
L3947L
sV295.94
p6711
L3672L
sV739.9
p6712
L5566L
sV596.6
p6713
L5337L
sVV43.60
p6714
L3000L
sV716.93
p6715
L1974L
sV746.89
p6716
L857L
sV295.32
p6717
L1574L
sV569.6
p6718
L7790L
sV814.08
p6719
L6226L
sV707.0
p6720
L3910L
sV868.02
p6721
L6158L
sVV17.1
p6722
L3973L
sV794.00
p6723
L7507L
sV949.1
p6724
L5220L
sV396.9
p6725
L1750L
sVV87.31
p6726
L1678L
sV410.82
p6727
L6000L
sV379.34
p6728
L4608L
sV980.0
p6729
L771L
sV574.91
p6730
L6888L
sV585.4
p6731
L502L
sV814.03
p6732
L4565L
sV115.19
p6733
L7158L
sV924.20
p6734
L1338L
sV362.17
p6735
L2350L
sVV58.64
p6736
L1969L
sVV78.0
p6737
L2858L
sV722.51
p6738
L1182L
sV654.44
p6739
L6506L
sVV48.9
p6740
L4616L
sV998.9
p6741
L3117L
sV301.84
p6742
L3706L
sV775.81
p6743
L7077L
sV576.9
p6744
L3165L
sV535.60
p6745
L1306L
sV528.6
p6746
L6605L
sV614.9
p6747
L2366L
sV276.6
p6748
L2029L
sV356.8
p6749
L1442L
sV389.02
p6750
L5180L
sV295.40
p6751
L3016L
sVV12.54
p6752
L310L
sVE937.9
p6753
L5159L
sV404.00
p6754
L4806L
sV195.8
p6755
L2399L
sV967.3
p6756
L5975L
sV216.6
p6757
L3286L
sV675.23
p6758
L6724L
sV594.0
p6759
L3324L
sV529.6
p6760
L4307L
sV701.3
p6761
L3986L
sV812.21
p6762
L2535L
sV718.46
p6763
L4276L
sV364.61
p6764
L7427L
sV772.5
p6765
L7240L
sV008.09
p6766
L6304L
sV339.41
p6767
L7241L
sV156.1
p6768
L4646L
sV235.3
p6769
L4444L
sV998.02
p6770
L3173L
sV160.4
p6771
L5211L
sV523.30
p6772
L1996L
sV296.56
p6773
L218L
sV746.82
p6774
L5458L
sV916.6
p6775
L6179L
sV213.8
p6776
L3884L
sV718.87
p6777
L1040L
sV255.9
p6778
L163L
sV995.27
p6779
L733L
sV249.81
p6780
L6567L
sV695.3
p6781
L4085L
sVV43.61
p6782
L3101L
sV730.80
p6783
L4090L
sV333.94
p6784
L1674L
sV711.28
p6785
L5663L
sV367.31
p6786
L1831L
sV249.00
p6787
L3071L
sV704.9
p6788
L6450L
sV795.6
p6789
L6838L
sV410.11
p6790
L2770L
sVV54.22
p6791
L7742L
sV600
p6792
L5902L
sV295.21
p6793
L3735L
sV376.9
p6794
L6753L
sVV55.8
p6795
L3398L
sV733.41
p6796
L7349L
sV939.2
p6797
L6502L
sV378.35
p6798
L6732L
sV947.0
p6799
L2312L
sV648.40
p6800
L7257L
sV188.2
p6801
L5035L
sV528.5
p6802
L3093L
sV173.11
p6803
L4173L
sV377.42
p6804
L3177L
sVV03.3
p6805
L5519L
sV039.1
p6806
L6867L
sV994.2
p6807
L5282L
sV277.9
p6808
L4437L
sV692.9
p6809
L609L
sV828.0
p6810
L5051L
sV770.4
p6811
L5873L
sV274.82
p6812
L3885L
sVV45.02
p6813
L1682L
sV719.86
p6814
L71L
sV371.53
p6815
L5814L
sV529.8
p6816
L959L
sV522.4
p6817
L3279L
sV649.13
p6818
L4851L
sV998.81
p6819
L4068L
sV730.85
p6820
L5894L
sVV52.9
p6821
L4357L
sV813.21
p6822
L2539L
sV494.0
p6823
L327L
sV102.3
p6824
L7796L
sV383.9
p6825
L3189L
sV871.4
p6826
L5196L
sV787.60
p6827
L1246L
sV975.5
p6828
L7812L
sV807.13
p6829
L1514L
sV289.1
p6830
L4431L
sV304.11
p6831
L4047L
sV863.1
p6832
L7561L
sV821.33
p6833
L6486L
sV250.63
p6834
L1896L
sVV85.24
p6835
L3386L
sV371.05
p6836
L5676L
sV382.1
p6837
L7643L
sV271.0
p6838
L6768L
sV307.42
p6839
L1609L
sV682.4
p6840
L583L
sVV18.69
p6841
L4280L
sV556.4
p6842
L5443L
sV569.41
p6843
L2560L
sVE946.3
p6844
L7292L
sV259.2
p6845
L2849L
sV905.7
p6846
L5215L
sV458.29
p6847
L1710L
sV493.22
p6848
L727L
sV339.02
p6849
L4930L
sV683
p6850
L4688L
sV157.8
p6851
L4643L
sV945.29
p6852
L7255L
sV996.73
p6853
L1594L
sVV15.7
p6854
L7621L
sV274.10
p6855
L5233L
sV974.4
p6856
L6712L
sV369.17
p6857
L7219L
sV754.43
p6858
L4825L
sV815.04
p6859
L3914L
sV417.1
p6860
L7273L
sVV68.1
p6861
L119L
sV758.89
p6862
L5302L
sV782.0
p6863
L319L
sV284.09
p6864
L2948L
sV573.9
p6865
L501L
sVV10.90
p6866
L1701L
sV746.87
p6867
L4514L
sV680.6
p6868
L2326L
sV733.97
p6869
L4472L
sV739.1
p6870
L1002L
sV870.8
p6871
L227L
sVE863.6
p6872
L6088L
sV654.23
p6873
L2745L
sV342.02
p6874
L5889L
sV710.3
p6875
L3400L
sV623.5
p6876
L1268L
sV716.09
p6877
L6400L
sV727.04
p6878
L3363L
sV339.21
p6879
L3788L
sV738.2
p6880
L4451L
sV389.13
p6881
L6825L
sV780.60
p6882
L364L
sV726.69
p6883
L5828L
sV585.5
p6884
L1575L
sV372.30
p6885
L1028L
sV599.3
p6886
L4214L
sV362.15
p6887
L7146L
sV255.8
p6888
L2649L
sVE879.9
p6889
L1100L
sV173.8
p6890
L7061L
sV039.9
p6891
L4121L
sVE927.0
p6892
L1381L
sV649.63
p6893
L4541L
sV654.21
p6894
L6519L
sV363.54
p6895
L7166L
sV174.5
p6896
L3907L
sVV88.02
p6897
L6950L
sV173.6
p6898
L7058L
sV807.05
p6899
L4680L
sVE849.6
p6900
L3055L
sV295.12
p6901
L2119L
sV378.71
p6902
L5882L
sV754.69
p6903
L4115L
sV631.0
p6904
L4843L
sV821.10
p6905
L4456L
sVV10.81
p6906
L5045L
sVV67.2
p6907
L819L
sV532.40
p6908
L3841L
sV227.0
p6909
L4165L
sVV15.1
p6910
L1997L
sV327.11
p6911
L7308L
sV034.0
p6912
L2126L
sV198.0
p6913
L3879L
sV730.0
p6914
L7410L
sV008.41
p6915
L7436L
sV374.00
p6916
L2701L
sV635.40
p6917
L6401L
sV959.1
p6918
L4716L
sV956.3
p6919
L5230L
sV945.34
p6920
L4579L
sV342.91
p6921
L3697L
sV631.8
p6922
L6319L
sV599.84
p6923
L4236L
sV414.04
p6924
L2507L
sV1
p6925
L7142L
sV719.91
p6926
L3584L
sV396.2
p6927
L2912L
sV649.40
p6928
L3954L
sV453.76
p6929
L4138L
sV681.9
p6930
L3326L
sV444.21
p6931
L4735L
sV431
p6932
L2879L
sVV10.09
p6933
L4773L
sV296.53
p6934
L618L
sV805.2
p6935
L1493L
sV853.09
p6936
L7347L
sV239.8
p6937
L7057L
sV304.81
p6938
L136L
sV715.14
p6939
L3053L
sV478.32
p6940
L3940L
sV279.09
p6941
L7710L
sV379.54
p6942
L7025L
sV459.30
p6943
L428L
sV596.55
p6944
L2968L
sV655.71
p6945
L4924L
sV718.90
p6946
L1775L
sV692.70
p6947
L6144L
sV455.6
p6948
L647L
sVE900.9
p6949
L4909L
sV233.2
p6950
L5937L
sV424.2
p6951
L839L
sV722.2
p6952
L1185L
sV883.0
p6953
L1318L
sV114.0
p6954
L6250L
sV362.41
p6955
L6127L
sV493.02
p6956
L3076L
sV786.52
p6957
L479L
sV322.0
p6958
L6474L
sV250.22
p6959
L1379L
sV276.7
p6960
L492L
sV211.5
p6961
L5686L
sV281.3
p6962
L3285L
sV274.11
p6963
L4741L
sV569.62
p6964
L4113L
sV070.71
p6965
L3927L
sV768.70
p6966
L6871L
sV474.11
p6967
L3014L
sV441.2
p6968
L1256L
sVV72.69
p6969
L409L
sV281.2
p6970
L3230L
sV757.6
p6971
L6722L
sV659.71
p6972
L7070L
sV934.8
p6973
L6879L
sV873.39
p6974
L7660L
sV416.2
p6975
L3766L
sV716.57
p6976
L3892L
sV714.33
p6977
L7608L
sV806.4
p6978
L2640L
sV346.92
p6979
L1854L
sV053.79
p6980
L2588L
sVV85.44
p6981
L4432L
sVV10.20
p6982
L4564L
sV295.62
p6983
L1225L
sV526.4
p6984
L2592L
sV313.89
p6985
L5393L
sV593.89
p6986
L2761L
sV879.6
p6987
L2630L
sV730.07
p6988
L2584L
sV365.52
p6989
L4403L
sV870.0
p6990
L233L
sV131.00
p6991
L7387L
sVV49.84
p6992
L1131L
sVV47.4
p6993
L5064L
sV758.39
p6994
L7189L
sV362.56
p6995
L1905L
sVV76.10
p6996
L754L
sV716.50
p6997
L1769L
sV495.8
p6998
L429L
sV410.21
p6999
L3309L
sV845.19
p7000
L3619L
sV719.57
p7001
L4665L
sV289.7
p7002
L5826L
sV726.63
p7003
L7236L
sV654.13
p7004
L7803L
sV312.89
p7005
L1147L
sV291.0
p7006
L763L
sV718.89
p7007
L5303L
sVV70.7
p7008
L3170L
sV782.62
p7009
L3888L
sV368.32
p7010
L7638L
sV914.4
p7011
L6312L
sV728.10
p7012
L7553L
sV963.8
p7013
L7397L
sV041.19
p7014
L2046L
sV142.1
p7015
L7003L
sV844.3
p7016
L4739L
sV376.11
p7017
L5276L
sV268.0
p7018
L6477L
sV404.01
p7019
L3886L
sV388.40
p7020
L3598L
sV723.2
p7021
L3220L
sV919.1
p7022
L4653L
sV368.9
p7023
L760L
sV250.50
p7024
L165L
sV196.1
p7025
L6207L
sV333.2
p7026
L2978L
sV373.12
p7027
L2472L
sV991.2
p7028
L5100L
sV377.9
p7029
L4748L
sV717.7
p7030
L689L
sV558.3
p7031
L7145L
sV414.9
p7032
L541L
sV374.03
p7033
L5511L
sV365.05
p7034
L3816L
sV070.52
p7035
L6527L
sV094.0
p7036
L3538L
sV327.10
p7037
L3277L
sV696.3
p7038
L3048L
sV705.81
p7039
L2602L
sV786.02
p7040
L3897L
sV750.3
p7041
L4583L
sV290.8
p7042
L6484L
sV953.9
p7043
L5122L
sV288.6
p7044
L5010L
sV279.06
p7045
L6794L
sV372.64
p7046
L6011L
sV989.89
p7047
L5859L
sV346.80
p7048
L3571L
sV348.2
p7049
L5846L
sV372.05
p7050
L536L
sV949.2
p7051
L5870L
sV135
p7052
L2967L
sV522.9
p7053
L4348L
sV041.11
p7054
L2776L
sV434.10
p7055
L3206L
sV641.20
p7056
L6516L
sVV61.49
p7057
L6690L
sV216.4
p7058
L3139L
sV252.9
p7059
L4769L
sV111.2
p7060
L4802L
sV366.20
p7061
L4015L
sV945.15
p7062
L3019L
sVV65.41
p7063
L3537L
sV492.0
p7064
L373L
sV767.4
p7065
L6576L
sV304.50
p7066
L5163L
sV591
p7067
L1783L
sV719.12
p7068
L6964L
sV917.9
p7069
L5535L
sV873.43
p7070
L3010L
sV596.51
p7071
L523L
sV296.51
p7072
L215L
sV238.6
p7073
L5986L
sV332
p7074
L3163L
sV456.6
p7075
L6220L
sV368.46
p7076
L3244L
sV707.13
p7077
L1635L
sV625.3
p7078
L2491L
sV580.0
p7079
L6940L
sV793.89
p7080
L1994L
sV724.3
p7081
L533L
sV596.53
p7082
L6035L
sV365.03
p7083
L1952L
sV423.8
p7084
L4611L
sV599.72
p7085
L1782L
sV379.40
p7086
L2794L
sV327.33
p7087
L7204L
sVV13.8
p7088
L7499L
sV289.82
p7089
L5517L
sV680.8
p7090
L6253L
sV793.19
p7091
L62L
sV793.80
p7092
L176L
sV787.62
p7093
L4597L
sV801.06
p7094
L4903L
sV377.33
p7095
L5136L
sV215.4
p7096
L6381L
sV969.00
p7097
L4271L
sV239.3
p7098
L684L
sV360.19
p7099
L3212L
sV463
p7100
L1285L
sV348.30
p7101
L963L
sVV10.82
p7102
L2212L
sV297.8
p7103
L4725L
sV959.11
p7104
L442L
sV715.11
p7105
L1706L
sV722.93
p7106
L1194L
sV174.8
p7107
L2981L
sV511.0
p7108
L745L
sV441.3
p7109
L6844L
sV786.06
p7110
L573L
sV812.51
p7111
L6195L
sV603.0
p7112
L6357L
sV395.1
p7113
L1597L
sV759.89
p7114
L1723L
sVV58.68
p7115
L3842L
sV275.49
p7116
L1361L
sV289.4
p7117
L1016L
sV304.72
p7118
L6500L
sV351.9
p7119
L4273L
sV389.01
p7120
L7210L
sV237.3
p7121
L4305L
sV996.54
p7122
L7630L
sV648.41
p7123
L3263L
sV788.37
p7124
L2518L
sV628.1
p7125
L7664L
sV077.8
p7126
L4483L
sV969.71
p7127
L7243L
sVV25.41
p7128
L5842L
sV530.81
p7129
L43L
sV989.4
p7130
L6089L
sV282.61
p7131
L5478L
sV214.2
p7132
L7411L
sV146.9
p7133
L6206L
sVE029.0
p7134
L6555L
sV473.3
p7135
L3333L
sV639.3
p7136
L3801L
sV293.81
p7137
L3355L
sV944.16
p7138
L6996L
sV522.5
p7139
L2413L
sV801.36
p7140
L4901L
sV150.5
p7141
L3772L
sV279.2
p7142
L2918L
sV173.61
p7143
L6448L
sV714.89
p7144
L2802L
sVV18.8
p7145
L7207L
sV288.61
p7146
L117L
sV347.01
p7147
L6960L
sV726.32
p7148
L2810L
sV253.3
p7149
L2391L
sV453.71
p7150
L4450L
sV581.3
p7151
L5126L
sV610.8
p7152
L4871L
sVE936.4
p7153
L7759L
sV751.5
p7154
L672L
sV749.10
p7155
L6636L
sV599.71
p7156
L2427L
sV493.10
p7157
L1275L
sV236.3
p7158
L5252L
sV965.9
p7159
L5076L
sVV58.82
p7160
L773L
sV474.02
p7161
L6787L
sV598.2
p7162
L6263L
sV250.93
p7163
L948L
sV575.12
p7164
L3827L
sV790.5
p7165
L899L
sV493.12
p7166
L3495L
sVV56.1
p7167
L2523L
sVE967.9
p7168
L4233L
sV300.10
p7169
L3045L
sV941.39
p7170
L7677L
sV173.22
p7171
L4167L
sV296.36
p7172
L2663L
sV038.42
p7173
L1150L
sV459
p7174
L6338L
sV306.4
p7175
L4022L
sV720.1
p7176
L1494L
sVV10.62
p7177
L7230L
sV644.20
p7178
L6432L
sVV43.21
p7179
L2036L
sV289.3
p7180
L2426L
sV404.91
p7181
L3985L
sV191.4
p7182
L2401L
sV010.11
p7183
L6905L
sV801.04
p7184
L4291L
sV300.82
p7185
L2765L
sV212.4
p7186
L5493L
sV365.21
p7187
L5446L
sV078.10
p7188
L2228L
sV753.13
p7189
L2080L
sVV07.59
p7190
L3714L
sV453.8
p7191
L6943L
sVE866.9
p7192
L6451L
sV696.0
p7193
L2996L
sV799.55
p7194
L6217L
sV333.0
p7195
L2985L
sV743.57
p7196
L1722L
sV297.1
p7197
L2104L
sVV64.00
p7198
L4464L
sV296.89
p7199
L1962L
sV550.10
p7200
L2628L
sV438.40
p7201
L6603L
sV943.15
p7202
L3018L
sV427.89
p7203
L42L
sV288.50
p7204
L1017L
sV874.9
p7205
L4766L
sV510.9
p7206
L2091L
sV404.12
p7207
L4889L
sV783.9
p7208
L1211L
sV368.14
p7209
L4720L
sV733.5
p7210
L5132L
sV438.7
p7211
L4888L
sV784.8
p7212
L6992L
sV379.26
p7213
L6804L
sV780.99
p7214
L77L
sV943.29
p7215
L6663L
sV716.61
p7216
L5689L
sV144.9
p7217
L1524L
sV233.4
p7218
L3534L
sV709.3
p7219
L4491L
sV710.8
p7220
L4223L
sV300.29
p7221
L5602L
sV527.7
p7222
L1005L
sV733.99
p7223
L1827L
sV336.1
p7224
L3936L
sV426.50
p7225
L3224L
sV799.24
p7226
L6411L
sV032.85
p7227
L6976L
sVV72.62
p7228
L2053L
sV196.0
p7229
L5360L
sVV45.00
p7230
L6620L
sV719.01
p7231
L3226L
sVE860.0
p7232
L2501L
sV279.03
p7233
L6793L
sV361.06
p7234
L5704L
sV382.00
p7235
L3155L
sVE826.9
p7236
L7136L
sV977.3
p7237
L3530L
sVV13.29
p7238
L4192L
sV599
p7239
L7628L
sV793.4
p7240
L667L
sV648.13
p7241
L6691L
sV864.02
p7242
L7377L
sV506.2
p7243
L5021L
sV995.23
p7244
L3898L
sV942.19
p7245
L4419L
sV526.9
p7246
L2233L
sV371.21
p7247
L5012L
sVV10.46
p7248
L2804L
sV779.7
p7249
L4969L
sV250.40
p7250
L1026L
sVE818.7
p7251
L6744L
sV788.9
p7252
L7699L
sV569.60
p7253
L1137L
sV780.3
p7254
L6961L
sVV48.4
p7255
L5189L
sV987.9
p7256
L2305L
sV424.91
p7257
L6366L
sV344.00
p7258
L1127L
sVV06.6
p7259
L882L
sV005.89
p7260
L7127L
sVV25.04
p7261
L6948L
sV600.91
p7262
L1316L
sV848.41
p7263
L7076L
sV871.9
p7264
L5745L
sV331.82
p7265
L2456L
sVE008.3
p7266
L7774L
sVV11.1
p7267
L2998L
sV765.10
p7268
L6352L
sV342.01
p7269
L4428L
sV473.0
p7270
L1960L
sV571.3
p7271
L476L
sV175.9
p7272
L5737L
sV815.02
p7273
L2085L
sVV77.0
p7274
L1019L
sV133.0
p7275
L943L
sV690.12
p7276
L1918L
sV289.59
p7277
L2561L
sV473.2
p7278
L2548L
sV611.79
p7279
L1993L
sV661.91
p7280
L7795L
sVV10.50
p7281
L5341L
sV362.84
p7282
L3523L
sV278.4
p7283
L1679L
sV112.9
p7284
L2156L
sV608.83
p7285
L7385L
sV996.53
p7286
L2130L
sV001.0
p7287
L3616L
sV718.99
p7288
L6725L
sV807.12
p7289
L4655L
sV321.0
p7290
L6542L
sV426.54
p7291
L6393L
sV041.03
p7292
L965L
sV791.5
p7293
L1908L
sV306.50
p7294
L6885L
sVV76.50
p7295
L4941L
sV477.8
p7296
L600L
sV307.46
p7297
L4662L
sV810.11
p7298
L6979L
sV380.13
p7299
L6232L
sV946.0
p7300
L5731L
sV374.84
p7301
L5356L
sV198.7
p7302
L5166L
sV071
p7303
L6872L
sV793.7
p7304
L549L
sV053.12
p7305
L3889L
sV951.9
p7306
L6966L
sV300.15
p7307
L2122L
sV276.5
p7308
L6645L
sV997.72
p7309
L5403L
sV287.5
p7310
L375L
sV032.82
p7311
L7176L
sV188.0
p7312
L5551L
sV070.1
p7313
L2886L
sV780.93
p7314
L207L
sV438.50
p7315
L3388L
sV342.82
p7316
L2131L
sV357.0
p7317
L4683L
sV314.01
p7318
L2099L
sVV56.31
p7319
L6577L
sV789.43
p7320
L7596L
sV718.4
p7321
L7527L
sV703.8
p7322
L181L
sV941.18
p7323
L2302L
sVV23.3
p7324
L5204L
sV527.5
p7325
L5237L
sV785.1
p7326
L186L
sV054.10
p7327
L673L
sVV01.89
p7328
L5030L
sV353.8
p7329
L4288L
sV814.05
p7330
L7531L
sVE917.7
p7331
L4520L
sV364.10
p7332
L2734L
sV443.24
p7333
L7430L
sV996.74
p7334
L1082L
sV737.9
p7335
L1947L
sV362.02
p7336
L1637L
sVV75.9
p7337
L3677L
sV361.01
p7338
L5068L
sV823.10
p7339
L6562L
sV648.63
p7340
L7071L
sV790.92
p7341
L850L
sV287.33
p7342
L7739L
sV945.24
p7343
L4059L
sV611.6
p7344
L5245L
sV790.09
p7345
L698L
sV643.03
p7346
L4841L
sV963.0
p7347
L7482L
sVV14.6
p7348
L748L
sV648.43
p7349
L4847L
sV810.02
p7350
L5310L
sV813.51
p7351
L7488L
sV362.61
p7352
L5771L
sV250.03
p7353
L734L
sV331.19
p7354
L1435L
sV880.13
p7355
L3272L
sV253.4
p7356
L3442L
sV824.6
p7357
L4812L
sV410.72
p7358
L2973L
sV236.5
p7359
L2672L
sV378.10
p7360
L2861L
sVV41.3
p7361
L4566L
sV780.32
p7362
L7083L
sVV42.82
p7363
L7589L
sV535.5
p7364
L4752L
sV378.86
p7365
L3856L
sV282.60
p7366
L4487L
sV533.91
p7367
L3223L
sV371.40
p7368
L2668L
sV820.19
p7369
L5169L
sVV85.25
p7370
L5079L
sV521.02
p7371
L2069L
sV791.0
p7372
L1251L
sV041.6
p7373
L1141L
sV993.3
p7374
L5404L
sV682.9
p7375
L612L
sV795.09
p7376
L4316L
sVV84.89
p7377
L6716L
sV453.2
p7378
L5747L
sV121.1
p7379
L6027L
sV816.10
p7380
L7447L
sVE001.1
p7381
L5804L
sV009.0
p7382
L3241L
sV851.40
p7383
L7494L
sV602.8
p7384
L1340L
sV375.56
p7385
L1067L
sV435
p7386
L5971L
sV336.0
p7387
L4593L
sV378.41
p7388
L5415L
sV286.4
p7389
L6271L
sV271.2
p7390
L6476L
sVV58.8
p7391
L5412L
sV480.1
p7392
L6525L
sV533.31
p7393
L6130L
sV320.9
p7394
L2910L
sV285.3
p7395
L395L
sV790.6
p7396
L467L
sV646.63
p7397
L4842L
sV831.01
p7398
L3137L
sVE965.0
p7399
L7653L
sV276.8
p7400
L21L
sV943.33
p7401
L5585L
sV161.1
p7402
L5016L
sV288.04
p7403
L3773L
sV996.86
p7404
L3575L
sV728.4
p7405
L4178L
sV737.34
p7406
L4311L
sV350.1
p7407
L1227L
sV141.8
p7408
L7777L
sV795.89
p7409
L379L
sV705.83
p7410
L919L
sV719.21
p7411
L5421L
sV717.84
p7412
L6308L
sV405.09
p7413
L4620L
sV627.8
p7414
L1755L
sV130.9
p7415
L3506L
sV599.60
p7416
L2673L
sVV04.89
p7417
L2073L
sV345.41
p7418
L1359L
sV739.6
p7419
L6178L
sVV26.41
p7420
L5770L
sV323.41
p7421
L1367L
sV692.72
p7422
L4130L
sV854.15
p7423
L4880L
sV746.09
p7424
L7636L
sV698.9
p7425
L283L
sV249.11
p7426
L7522L
sV711.57
p7427
L5962L
sV839.00
p7428
L5752L
sVV07.9
p7429
L4340L
sV652.21
p7430
L7068L
sV998.32
p7431
L404L
sV433.91
p7432
L6262L
sV239.7
p7433
L2520L
sV438.22
p7434
L605L
sV733.20
p7435
L4060L
sV656.63
p7436
L3255L
sVE905.3
p7437
L1310L
sV270.2
p7438
L4363L
sV205.30
p7439
L5658L
sV754.52
p7440
L5874L
sV803.20
p7441
L6986L
sV648.01
p7442
L2123L
sV278.02
p7443
L935L
sV415.12
p7444
L6397L
sV719.53
p7445
L3847L
sV381.3
p7446
L3473L
sVV45.51
p7447
L4209L
sV823.02
p7448
L2626L
sV711.12
p7449
L7557L
sV531.20
p7450
L7498L
sVE856
p7451
L6277L
sV078.12
p7452
L1064L
sV719.04
p7453
L4983L
sV054.0
p7454
L6581L
sV305.71
p7455
L2573L
sV715.27
p7456
L3376L
sV789.2
p7457
L422L
sV291.82
p7458
L5218L
sV359.89
p7459
L300L
sV453.72
p7460
L4448L
sV482.30
p7461
L1861L
sV078.3
p7462
L5405L
sV395.2
p7463
L7126L
sV279.49
p7464
L2874L
sV355.2
p7465
L3432L
sV521.30
p7466
L4143L
sV926.12
p7467
L7162L
sV365.15
p7468
L5969L
sV891.2
p7469
L5788L
sV752.51
p7470
L2724L
sVV76.43
p7471
L5560L
sV145.9
p7472
L7080L
sV388.61
p7473
L5959L
sV794.15
p7474
L6777L
sV525.50
p7475
L4944L
sVE879.6
p7476
L4036L
sV730.00
p7477
L1140L
sVV64.43
p7478
L3214L
sVV55.0
p7479
L1945L
sV152.1
p7480
L6834L
sVV44.59
p7481
L4035L
sV384.21
p7482
L1720L
sV851.00
p7483
L4905L
sV712.33
p7484
L5743L
sV719.10
p7485
L86L
sV072.2
p7486
L6707L
sV369.18
p7487
L5980L
sV337.22
p7488
L4931L
sV200.42
p7489
L5594L
sV593.0
p7490
L3756L
sV362.53
p7491
L2532L
sV600.20
p7492
L1479L
sV518.6
p7493
L6857L
sVE813.0
p7494
L3367L
sV873.54
p7495
L5703L
sV290.3
p7496
L2162L
sV380.02
p7497
L7509L
sV288.09
p7498
L3438L
sVE819.2
p7499
L4966L
sV521.09
p7500
L4964L
sV398.90
p7501
L3344L
sV117.3
p7502
L1560L
sVV60.5
p7503
L7671L
sV345.80
p7504
L25L
sV719.7
p7505
L649L
sV567.23
p7506
L4020L
sV825.23
p7507
L3057L
sV715.10
p7508
L1277L
sV795.01
p7509
L330L
sV8
p7510
L5392L
sV366.52
p7511
L585L
sV218.1
p7512
L3742L
sV224.5
p7513
L7555L
sVV67.51
p7514
L358L
sV338.2
p7515
L7118L
sV433.00
p7516
L5502L
sV736.76
p7517
L6032L
sV718.80
p7518
L4186L
sV648.21
p7519
L5200L
sV201.70
p7520
L5485L
sV575.3
p7521
L3614L
sV915.9
p7522
L3660L
sV354.2
p7523
L1734L
sV582.1
p7524
L5992L
sVV58.32
p7525
L236L
sV782.7
p7526
L2657L
sV874.5
p7527
L7059L
sV362.83
p7528
L484L
sVE939.4
p7529
L2994L
sVV07.1
p7530
L5294L
sVV65.5
p7531
L3958L
sV789.47
p7532
L4324L
sV453.81
p7533
L3744L
sV741.92
p7534
L6907L
sV492.8
p7535
L235L
sVV02.62
p7536
L569L
sV655.70
p7537
L6896L
sV132.0
p7538
L5685L
sV812.11
p7539
L7468L
sV518.5
p7540
L4255L
sV243
p7541
L2921L
sV380.9
p7542
L6410L
sV266.0
p7543
L4495L
sV189.9
p7544
L5371L
sV433.11
p7545
L2877L
sVE906.4
p7546
L1048L
sV112.1
p7547
L2048L
sVE876.8
p7548
L4660L
sV996.60
p7549
L1108L
sV378.81
p7550
L5306L
sV991.6
p7551
L797L
sV789.65
p7552
L4867L
sV694.9
p7553
L3600L
sV200.80
p7554
L3446L
sV333.92
p7555
L6092L
sV656.11
p7556
L3633L
sV584.7
p7557
L6740L
sV806.25
p7558
L7036L
sVV43.63
p7559
L5003L
sV727.43
p7560
L1235L
sV366.30
p7561
L994L
sV887.4
p7562
L5555L
sV279.01
p7563
L6792L
sV758.5
p7564
L5628L
sV995.80
p7565
L2562L
sVV10.72
p7566
L7051L
sV812.00
p7567
L2538L
sV355.3
p7568
L1469L
sV290.10
p7569
L1632L
sV362.36
p7570
L252L
sV675.13
p7571
L5468L
sV724.1
p7572
L702L
sV346.73
p7573
L3560L
sV488.11
p7574
L6313L
sV478.25
p7575
L3794L
sV295.91
p7576
L4446L
sV833.00
p7577
L5161L
sV149.0
p7578
L2828L
sV697.0
p7579
L4095L
sV727.69
p7580
L7031L
sV277.85
p7581
L4031L
sV378.01
p7582
L2388L
sV162.5
p7583
L425L
sVE968.1
p7584
L2796L
sV913.3
p7585
L5946L
sV493.20
p7586
L96L
sV692.89
p7587
L4043L
sVV17.3
p7588
L2348L
sV331.4
p7589
L1047L
sV370.06
p7590
L6959L
sV331.89
p7591
L3802L
sV695.4
p7592
L2637L
sVV65.2
p7593
L2629L
sV508.0
p7594
L4732L
sV717.43
p7595
L6062L
sV239.89
p7596
L1535L
sVV69.2
p7597
L2421L
sVE915
p7598
L3322L
sV730.11
p7599
L5584L
sV207.00
p7600
L7089L
sV191.7
p7601
L7717L
sV900.9
p7602
L5564L
sV811.01
p7603
L5347L
sV915.1
p7604
L3040L
sV353.6
p7605
L3812L
sV719.37
p7606
L5853L
sV985.8
p7607
L2245L
sVV04.5
p7608
L6873L
sV691.0
p7609
L1526L
sVE851
p7610
L7755L
sV192.1
p7611
L7043L
sVV58.65
p7612
L1616L
sVV70.8
p7613
L3771L
sVV54.16
p7614
L989L
sV881.10
p7615
L2972L
sVV45.79
p7616
L527L
sV969.6
p7617
L5301L
sV173.00
p7618
L2803L
sV349.81
p7619
L5626L
sV780.33
p7620
L12L
sVV66.0
p7621
L5893L
sV780.4
p7622
L214L
sVV03.9
p7623
L7206L
sV840.8
p7624
L1792L
sV211.9
p7625
L3743L
sV131.01
p7626
L3679L
sV917.0
p7627
L122L
sV590.9
p7628
L3818L
sV788.50
p7629
L5982L
sVV76.44
p7630
L126L
sVV45.59
p7631
L6038L
sV867.2
p7632
L7526L
sV922.8
p7633
L1789L
sV448.1
p7634
L4734L
sVV06.8
p7635
L2863L
sV635.91
p7636
L7459L
sVV45.4
p7637
L1676L
sV756.19
p7638
L6884L
sV327.23
p7639
L703L
sV303.91
p7640
L230L
sV359.1
p7641
L2516L
sVV14.7
p7642
L4286L
sV995.91
p7643
L411L
sV293.1
p7644
L1711L
sVE950.0
p7645
L2270L
sV792.4
p7646
L6685L
sV389.15
p7647
L1451L
sV712.37
p7648
L2596L
sV346.71
p7649
L3468L
sV656.51
p7650
L4864L
sVV62.29
p7651
L5506L
sV728.19
p7652
L6987L
sV225.2
p7653
L2666L
sV154.2
p7654
L5444L
sV826.1
p7655
L3450L
sVE818.1
p7656
L4289L
sV599.1
p7657
L5384L
sVV61.11
p7658
L5432L
sV360.42
p7659
L1266L
sV928.20
p7660
L3290L
sVV85.31
p7661
L3314L
sVV06.1
p7662
L170L
sV370.62
p7663
L4238L
sV727.41
p7664
L3317L
sV309.29
p7665
L4526L
sVE878.2
p7666
L1867L
sV716.30
p7667
L4626L
sVE942.2
p7668
L5926L
sV923.21
p7669
L3435L
sV252.02
p7670
L5436L
sV564.09
p7671
L1007L
sV362.65
p7672
L3896L
sV215.6
p7673
L6052L
sV379.00
p7674
L6033L
sV869.1
p7675
L4965L
sV506.9
p7676
L4549L
sV737.20
p7677
L652L
sV738.9
p7678
L6897L
sVV54.19
p7679
L277L
sV521.10
p7680
L6597L
sV305.90
p7681
L124L
sV578.0
p7682
L867L
sV384.09
p7683
L5125L
sV523.6
p7684
L3246L
sV214.1
p7685
L918L
sV996.09
p7686
L2508L
sV983.9
p7687
L4973L
sV780.72
p7688
L1129L
sVV62.85
p7689
L2579L
sV451.82
p7690
L5355L
sV788.62
p7691
L3411L
sV085.1
p7692
L3329L
sV266.9
p7693
L2451L
sVV46.0
p7694
L7332L
sV428.41
p7695
L2542L
sV385.83
p7696
L5118L
sV173.20
p7697
L5102L
sV928.11
p7698
L3830L
sV433.20
p7699
L949L
sV284.8
p7700
L7572L
sV038.12
p7701
L1859L
sVE950.3
p7702
L770L
sV789.09
p7703
L384L
sVV44.2
p7704
L4770L
sV323.9
p7705
L3860L
sV698.3
p7706
L1377L
sV576.1
p7707
L1665L
sV224.1
p7708
L5636L
sV784.69
p7709
L2881L
sV235.8
p7710
L3668L
sV245.8
p7711
L5248L
sVV49.65
p7712
L4400L
sV357.7
p7713
L5445L
sV799.29
p7714
L5552L
sV525.63
p7715
L6582L
sV374.34
p7716
L2433L
sV719.63
p7717
L7519L
sV728.85
p7718
L642L
sVV25.02
p7719
L1221L
sV732.8
p7720
L3185L
sV389.05
p7721
L5155L
sVV53.39
p7722
L2028L
sV117.9
p7723
L4303L
sV482.49
p7724
L4551L
sV918.9
p7725
L4461L
sV230.3
p7726
L7466L
sV716.12
p7727
L7700L
sV022.2
p7728
L7401L
sV574.50
p7729
L661L
sV845.01
p7730
L3872L
sV718.97
p7731
L4866L
sV244.0
p7732
L1951L
sV646.90
p7733
L7374L
sVE858.8
p7734
L4325L
sV715.37
p7735
L224L
sV440.1
p7736
L2680L
sV596.82
p7737
L5277L
sV736.22
p7738
L5883L
sV728.2
p7739
L1162L
sV921.1
p7740
L4L
sV996.42
p7741
L4814L
sV716.46
p7742
L4740L
sV659.73
p7743
L3259L
sV352.6
p7744
L7617L
sV718.45
p7745
L4413L
sV250.82
p7746
L975L
sV789.07
p7747
L376L
sV304.43
p7748
L4287L
sV564.9
p7749
L591L
sV346.00
p7750
L1083L
sV787.02
p7751
L366L
sVV73.99
p7752
L4049L
sV596.89
p7753
L1824L
sV806.8
p7754
L7511L
sV386.01
p7755
L5655L
sV356.4
p7756
L2430L
sV624.5
p7757
L2527L
sV996.43
p7758
L2870L
sV738.6
p7759
L4265L
sVE920.4
p7760
L4755L
sV733.81
p7761
L3298L
sV403.90
p7762
L415L
sV360.40
p7763
L4388L
sV527.1
p7764
L5499L
sV279.8
p7765
L4381L
sV783.21
p7766
L162L
sVV28.5
p7767
L6513L
sV552.29
p7768
L5381L
sV371.12
p7769
L1236L
sV724.9
p7770
L1761L
sV303.90
p7771
L63L
sV195.4
p7772
L5262L
sV714.31
p7773
L6240L
sV711.98
p7774
L5583L
sV568.0
p7775
L1128L
sV777.9
p7776
L7669L
sV202.70
p7777
L6569L
sVV26.31
p7778
L4915L
sV359.29
p7779
L4991L
sV306.0
p7780
L5608L
sV239.5
p7781
L3961L
sV618.4
p7782
L1626L
sV372.34
p7783
L6556L
sV726.30
p7784
L2799L
sV648.83
p7785
L4534L
sV357.1
p7786
L5105L
sV784.41
p7787
L2898L
sV676.83
p7788
L6521L
sV235.7
p7789
L3130L
sVV87.2
p7790
L3990L
sVE862.1
p7791
L6023L
sV427.1
p7792
L854L
sV099.9
p7793
L2364L
sV396.1
p7794
L1729L
sV383.00
p7795
L4457L
sV795.04
p7796
L6111L
sV162.0
p7797
L6229L
sV852.40
p7798
L5054L
sV642.41
p7799
L2483L
sV533.30
p7800
L4874L
sV379.33
p7801
L7185L
sV788.91
p7802
L1654L
sV249.10
p7803
L1582L
sV008.45
p7804
L1138L
sVE850.1
p7805
L3751L
sV524.60
p7806
L2432L
sV362.11
p7807
L1612L
sV793.82
p7808
L1982L
sV805.02
p7809
L3515L
sV572.8
p7810
L503L
sV238.4
p7811
L1180L
sV218.2
p7812
L6128L
sV641.83
p7813
L4849L
s.